(dp1
I0
S'8dff47aa86a53489eb367e2a8e010da2'
p2
sI1
S'ed9d28f8b48cbbc22905eb0e4939a971'
p3
sI2
S'd3fabf6946d59b69ce52039159451465'
p4
sI3
S'd3fabf6946d59b69ce52039159451465'
p5
sI4
S'ed9d28f8b48cbbc22905eb0e4939a971'
p6
sI5
S'd3fabf6946d59b69ce52039159451465'
p7
sI6
S'8296b295cad03c188f7c7e3f493cd51b'
p8
sI7
S'ed9d28f8b48cbbc22905eb0e4939a971'
p9
sI8
S'ed9d28f8b48cbbc22905eb0e4939a971'
p10
sI9
S'ed9d28f8b48cbbc22905eb0e4939a971'
p11
sI10
S'd3fabf6946d59b69ce52039159451465'
p12
sI11
S'8dff47aa86a53489eb367e2a8e010da2'
p13
sI12
S'a679f7ede37b1a73af88c572c8bc2de8'
p14
sI13
S'a679f7ede37b1a73af88c572c8bc2de8'
p15
sI14
S'ed9d28f8b48cbbc22905eb0e4939a971'
p16
sI15
S'd3fabf6946d59b69ce52039159451465'
p17
sI16
S'0cabd31fe66ee301d3071e16cb6779a3'
p18
sI17
S'8dff47aa86a53489eb367e2a8e010da2'
p19
sI18
S'e3cdd573b784b958a109245064deaa1e'
p20
sI19
S'ed9d28f8b48cbbc22905eb0e4939a971'
p21
sI20
S'81d84246a74d608f3ee63a106cbb043b'
p22
sI21
S'ed9d28f8b48cbbc22905eb0e4939a971'
p23
sI22
S'ed9d28f8b48cbbc22905eb0e4939a971'
p24
sI23
S'0cabd31fe66ee301d3071e16cb6779a3'
p25
sI24
S'd3fabf6946d59b69ce52039159451465'
p26
sI25
S'd3fabf6946d59b69ce52039159451465'
p27
sI26
S'd3fabf6946d59b69ce52039159451465'
p28
sI27
S'ed9d28f8b48cbbc22905eb0e4939a971'
p29
sI28
S'd3fabf6946d59b69ce52039159451465'
p30
sI29
S'f1c9929754d150ad2f04203d5d812c5c'
p31
sI30
S'ed9d28f8b48cbbc22905eb0e4939a971'
p32
sI31
S'ed9d28f8b48cbbc22905eb0e4939a971'
p33
sI32
S'ed9d28f8b48cbbc22905eb0e4939a971'
p34
sI33
S'8dff47aa86a53489eb367e2a8e010da2'
p35
sI34
S'8dff47aa86a53489eb367e2a8e010da2'
p36
sI35
S'ed9d28f8b48cbbc22905eb0e4939a971'
p37
sI36
S'81d84246a74d608f3ee63a106cbb043b'
p38
sI37
S'8296b295cad03c188f7c7e3f493cd51b'
p39
sI38
S'8296b295cad03c188f7c7e3f493cd51b'
p40
sI39
S'81d84246a74d608f3ee63a106cbb043b'
p41
sI40
S'ed9d28f8b48cbbc22905eb0e4939a971'
p42
sI41
S'd3fabf6946d59b69ce52039159451465'
p43
sI42
S'8296b295cad03c188f7c7e3f493cd51b'
p44
sI43
S'dcce9e8139eb95370bd18ea589f1ac5a'
p45
sI44
S'ed9d28f8b48cbbc22905eb0e4939a971'
p46
sI45
S'1c674f4da09702648fa1de63230a68de'
p47
sI46
S'ed9d28f8b48cbbc22905eb0e4939a971'
p48
sI47
S'81d84246a74d608f3ee63a106cbb043b'
p49
sI48
S'ed9d28f8b48cbbc22905eb0e4939a971'
p50
sI49
S'ed9d28f8b48cbbc22905eb0e4939a971'
p51
sI50
S'ed9d28f8b48cbbc22905eb0e4939a971'
p52
sI51
S'ed9d28f8b48cbbc22905eb0e4939a971'
p53
sI52
S'ed9d28f8b48cbbc22905eb0e4939a971'
p54
sI53
S'ed9d28f8b48cbbc22905eb0e4939a971'
p55
sI54
S'ed9d28f8b48cbbc22905eb0e4939a971'
p56
sI55
S'ed9d28f8b48cbbc22905eb0e4939a971'
p57
sI56
S'81d84246a74d608f3ee63a106cbb043b'
p58
sI57
S'0cabd31fe66ee301d3071e16cb6779a3'
p59
sI58
S'0cabd31fe66ee301d3071e16cb6779a3'
p60
sI59
S'0cabd31fe66ee301d3071e16cb6779a3'
p61
sI60
S'ed9d28f8b48cbbc22905eb0e4939a971'
p62
sI61
S'ed9d28f8b48cbbc22905eb0e4939a971'
p63
sI62
S'd3fabf6946d59b69ce52039159451465'
p64
sI63
S'0cabd31fe66ee301d3071e16cb6779a3'
p65
sI64
S'ed9d28f8b48cbbc22905eb0e4939a971'
p66
sI65
S'ed9d28f8b48cbbc22905eb0e4939a971'
p67
sI66
S'8e7562bff1d3f565b534248229302e3b'
p68
sI67
S'8e7562bff1d3f565b534248229302e3b'
p69
sI68
S'8e7562bff1d3f565b534248229302e3b'
p70
sI69
S'8e7562bff1d3f565b534248229302e3b'
p71
sI70
S'8e7562bff1d3f565b534248229302e3b'
p72
sI71
S'8e7562bff1d3f565b534248229302e3b'
p73
sI72
S'8e7562bff1d3f565b534248229302e3b'
p74
sI73
S'8fcb64811fd61f1c81c31cd3197f4b6c'
p75
sI74
S'bc9ddf93f89fa252d7b291f1aaaf62fb'
p76
sI75
S'e3cdd573b784b958a109245064deaa1e'
p77
sI76
S'e3cdd573b784b958a109245064deaa1e'
p78
sI77
S'fd0de6977f28814aed2373bdad80f25f'
p79
sI78
S'a5699f2b94f800b4b7d07dfc1c584edc'
p80
sI79
S'8e7562bff1d3f565b534248229302e3b'
p81
sI80
S'e3cdd573b784b958a109245064deaa1e'
p82
sI81
S'e3cdd573b784b958a109245064deaa1e'
p83
sI82
S'e3cdd573b784b958a109245064deaa1e'
p84
sI83
S'1c674f4da09702648fa1de63230a68de'
p85
sI84
S'e3cdd573b784b958a109245064deaa1e'
p86
sI85
S'81d84246a74d608f3ee63a106cbb043b'
p87
sI86
S'e3cdd573b784b958a109245064deaa1e'
p88
sI87
S'e3cdd573b784b958a109245064deaa1e'
p89
sI88
S'e3cdd573b784b958a109245064deaa1e'
p90
sI89
S'1c674f4da09702648fa1de63230a68de'
p91
sI90
S'8296b295cad03c188f7c7e3f493cd51b'
p92
sI91
S'e3cdd573b784b958a109245064deaa1e'
p93
sI92
S'e3cdd573b784b958a109245064deaa1e'
p94
sI93
S'8296b295cad03c188f7c7e3f493cd51b'
p95
sI94
S'8296b295cad03c188f7c7e3f493cd51b'
p96
sI95
S'ed9d28f8b48cbbc22905eb0e4939a971'
p97
sI96
S'bc9ddf93f89fa252d7b291f1aaaf62fb'
p98
sI97
S'e3cdd573b784b958a109245064deaa1e'
p99
sI98
S'e3cdd573b784b958a109245064deaa1e'
p100
sI99
S'e3cdd573b784b958a109245064deaa1e'
p101
sI100
S'e3cdd573b784b958a109245064deaa1e'
p102
sI101
S'e3cdd573b784b958a109245064deaa1e'
p103
sI102
S'1c674f4da09702648fa1de63230a68de'
p104
sI103
S'e3cdd573b784b958a109245064deaa1e'
p105
sI104
S'd3fabf6946d59b69ce52039159451465'
p106
sI105
S'e3cdd573b784b958a109245064deaa1e'
p107
sI106
S'1c674f4da09702648fa1de63230a68de'
p108
sI107
S'e3cdd573b784b958a109245064deaa1e'
p109
sI108
S'ed9d28f8b48cbbc22905eb0e4939a971'
p110
sI109
S'0cabd31fe66ee301d3071e16cb6779a3'
p111
sI110
S'e3cdd573b784b958a109245064deaa1e'
p112
sI111
S'd3fabf6946d59b69ce52039159451465'
p113
sI112
S'e3cdd573b784b958a109245064deaa1e'
p114
sI113
S'e3cdd573b784b958a109245064deaa1e'
p115
sI114
S'de7e55fd9dd7958af66476b841e9083c'
p116
sI115
S'de7e55fd9dd7958af66476b841e9083c'
p117
sI116
S'de7e55fd9dd7958af66476b841e9083c'
p118
sI117
S'e3cdd573b784b958a109245064deaa1e'
p119
sI118
S'e3cdd573b784b958a109245064deaa1e'
p120
sI119
S'de7e55fd9dd7958af66476b841e9083c'
p121
sI120
S'de7e55fd9dd7958af66476b841e9083c'
p122
sI121
S'0cabd31fe66ee301d3071e16cb6779a3'
p123
sI122
S'd3fabf6946d59b69ce52039159451465'
p124
sI123
S'ed9d28f8b48cbbc22905eb0e4939a971'
p125
sI124
S'e3cdd573b784b958a109245064deaa1e'
p126
sI125
S'd3fabf6946d59b69ce52039159451465'
p127
sI126
S'fd0de6977f28814aed2373bdad80f25f'
p128
sI127
S'e3cdd573b784b958a109245064deaa1e'
p129
sI128
S'e3cdd573b784b958a109245064deaa1e'
p130
sI129
S'ed9d28f8b48cbbc22905eb0e4939a971'
p131
sI130
S'd3fabf6946d59b69ce52039159451465'
p132
sI131
S'e3cdd573b784b958a109245064deaa1e'
p133
sI132
S'e3cdd573b784b958a109245064deaa1e'
p134
sI133
S'e3cdd573b784b958a109245064deaa1e'
p135
sI134
S'0cabd31fe66ee301d3071e16cb6779a3'
p136
sI135
S'fd0de6977f28814aed2373bdad80f25f'
p137
sI136
S'e3cdd573b784b958a109245064deaa1e'
p138
sI137
S'fd0de6977f28814aed2373bdad80f25f'
p139
sI138
S'1c674f4da09702648fa1de63230a68de'
p140
sI139
S'1c674f4da09702648fa1de63230a68de'
p141
sI140
S'e3cdd573b784b958a109245064deaa1e'
p142
sI141
S'd3fabf6946d59b69ce52039159451465'
p143
sI142
S'fd0de6977f28814aed2373bdad80f25f'
p144
sI143
S'e3cdd573b784b958a109245064deaa1e'
p145
sI144
S'd3fabf6946d59b69ce52039159451465'
p146
sI145
S'd3fabf6946d59b69ce52039159451465'
p147
sI146
S'ed9d28f8b48cbbc22905eb0e4939a971'
p148
sI147
S'e3cdd573b784b958a109245064deaa1e'
p149
sI148
S'ed9d28f8b48cbbc22905eb0e4939a971'
p150
sI149
S'8dff47aa86a53489eb367e2a8e010da2'
p151
sI150
S'e3cdd573b784b958a109245064deaa1e'
p152
sI151
S'ed9d28f8b48cbbc22905eb0e4939a971'
p153
sI152
S'd3fabf6946d59b69ce52039159451465'
p154
sI153
S'e3cdd573b784b958a109245064deaa1e'
p155
sI154
S'd3fabf6946d59b69ce52039159451465'
p156
sI155
S'e3cdd573b784b958a109245064deaa1e'
p157
sI156
S'e3cdd573b784b958a109245064deaa1e'
p158
sI157
S'c2ec79a92ef680fa66bf2e0f6b028d0b'
p159
sI158
S'd3fabf6946d59b69ce52039159451465'
p160
sI159
S'dcc318bcb4a4036655a0843b4fe7942e'
p161
sI160
S'e3cdd573b784b958a109245064deaa1e'
p162
sI161
S'ed9d28f8b48cbbc22905eb0e4939a971'
p163
sI162
S'ed9d28f8b48cbbc22905eb0e4939a971'
p164
sI163
S'e3cdd573b784b958a109245064deaa1e'
p165
sI164
S'd3fabf6946d59b69ce52039159451465'
p166
sI165
S'fd0de6977f28814aed2373bdad80f25f'
p167
sI166
S'e3cdd573b784b958a109245064deaa1e'
p168
sI167
S'fd0de6977f28814aed2373bdad80f25f'
p169
sI168
S'd3fabf6946d59b69ce52039159451465'
p170
sI169
S'e3cdd573b784b958a109245064deaa1e'
p171
sI170
S'fd0de6977f28814aed2373bdad80f25f'
p172
sI171
S'e3cdd573b784b958a109245064deaa1e'
p173
sI172
S'81d84246a74d608f3ee63a106cbb043b'
p174
sI173
S'd3fabf6946d59b69ce52039159451465'
p175
sI174
S'dcc318bcb4a4036655a0843b4fe7942e'
p176
sI175
S'e3cdd573b784b958a109245064deaa1e'
p177
sI176
S'e3cdd573b784b958a109245064deaa1e'
p178
sI177
S'e3cdd573b784b958a109245064deaa1e'
p179
sI178
S'd3fabf6946d59b69ce52039159451465'
p180
sI179
S'ed9d28f8b48cbbc22905eb0e4939a971'
p181
sI180
S'e3cdd573b784b958a109245064deaa1e'
p182
sI181
S'de7e55fd9dd7958af66476b841e9083c'
p183
sI182
S'e3cdd573b784b958a109245064deaa1e'
p184
sI183
S'ed9d28f8b48cbbc22905eb0e4939a971'
p185
sI184
S'e3cdd573b784b958a109245064deaa1e'
p186
sI185
S'ed9d28f8b48cbbc22905eb0e4939a971'
p187
sI186
S'e3cdd573b784b958a109245064deaa1e'
p188
sI187
S'd3fabf6946d59b69ce52039159451465'
p189
sI188
S'e3cdd573b784b958a109245064deaa1e'
p190
sI189
S'ed9d28f8b48cbbc22905eb0e4939a971'
p191
sI190
S'e3cdd573b784b958a109245064deaa1e'
p192
sI191
S'ed9d28f8b48cbbc22905eb0e4939a971'
p193
sI192
S'fd0de6977f28814aed2373bdad80f25f'
p194
sI193
S'e3cdd573b784b958a109245064deaa1e'
p195
sI194
S'e3cdd573b784b958a109245064deaa1e'
p196
sI195
S'ed9d28f8b48cbbc22905eb0e4939a971'
p197
sI196
S'e3cdd573b784b958a109245064deaa1e'
p198
sI197
S'ffa96a13101c4baee282ee042ace2192'
p199
sI198
S'ed9d28f8b48cbbc22905eb0e4939a971'
p200
sI199
S'fd0de6977f28814aed2373bdad80f25f'
p201
sI200
S'ed9d28f8b48cbbc22905eb0e4939a971'
p202
sI201
S'e3cdd573b784b958a109245064deaa1e'
p203
sI202
S'ed9d28f8b48cbbc22905eb0e4939a971'
p204
sI203
S'0cabd31fe66ee301d3071e16cb6779a3'
p205
sI204
S'e3cdd573b784b958a109245064deaa1e'
p206
sI205
S'fd0de6977f28814aed2373bdad80f25f'
p207
sI206
S'ed9d28f8b48cbbc22905eb0e4939a971'
p208
sI207
S'ffa96a13101c4baee282ee042ace2192'
p209
sI208
S'1c674f4da09702648fa1de63230a68de'
p210
sI209
S'0cabd31fe66ee301d3071e16cb6779a3'
p211
sI210
S'ed9d28f8b48cbbc22905eb0e4939a971'
p212
sI211
S'd3fabf6946d59b69ce52039159451465'
p213
sI212
S'd3fabf6946d59b69ce52039159451465'
p214
sI213
S'dcc318bcb4a4036655a0843b4fe7942e'
p215
sI214
S'd3fabf6946d59b69ce52039159451465'
p216
sI215
S'e3cdd573b784b958a109245064deaa1e'
p217
sI216
S'1c674f4da09702648fa1de63230a68de'
p218
sI217
S'ed9d28f8b48cbbc22905eb0e4939a971'
p219
sI218
S'e3cdd573b784b958a109245064deaa1e'
p220
sI219
S'd3fabf6946d59b69ce52039159451465'
p221
sI220
S'ed9d28f8b48cbbc22905eb0e4939a971'
p222
sI221
S'ed9d28f8b48cbbc22905eb0e4939a971'
p223
sI222
S'd3fabf6946d59b69ce52039159451465'
p224
sI223
S'fd0de6977f28814aed2373bdad80f25f'
p225
sI224
S'dcc318bcb4a4036655a0843b4fe7942e'
p226
sI225
S'e3cdd573b784b958a109245064deaa1e'
p227
sI226
S'1c674f4da09702648fa1de63230a68de'
p228
sI227
S'dcc318bcb4a4036655a0843b4fe7942e'
p229
sI228
S'ed9d28f8b48cbbc22905eb0e4939a971'
p230
sI229
S'ed9d28f8b48cbbc22905eb0e4939a971'
p231
sI230
S'ed9d28f8b48cbbc22905eb0e4939a971'
p232
sI231
S'd3fabf6946d59b69ce52039159451465'
p233
sI232
S'dcc318bcb4a4036655a0843b4fe7942e'
p234
sI233
S'ed9d28f8b48cbbc22905eb0e4939a971'
p235
sI234
S'dcc318bcb4a4036655a0843b4fe7942e'
p236
sI235
S'dcc318bcb4a4036655a0843b4fe7942e'
p237
sI236
S'fd0de6977f28814aed2373bdad80f25f'
p238
sI237
S'dcc318bcb4a4036655a0843b4fe7942e'
p239
sI238
S'd3fabf6946d59b69ce52039159451465'
p240
sI239
S'dcc318bcb4a4036655a0843b4fe7942e'
p241
sI240
S'dcc318bcb4a4036655a0843b4fe7942e'
p242
sI241
S'd3fabf6946d59b69ce52039159451465'
p243
sI242
S'1c674f4da09702648fa1de63230a68de'
p244
sI243
S'ed9d28f8b48cbbc22905eb0e4939a971'
p245
sI244
S'd3fabf6946d59b69ce52039159451465'
p246
sI245
S'd3fabf6946d59b69ce52039159451465'
p247
sI246
S'ed9d28f8b48cbbc22905eb0e4939a971'
p248
sI247
S'dcc318bcb4a4036655a0843b4fe7942e'
p249
sI248
S'ed9d28f8b48cbbc22905eb0e4939a971'
p250
sI249
S'dd437ad97079318550a4fa2bd5b987fe'
p251
sI250
S'81d84246a74d608f3ee63a106cbb043b'
p252
sI251
S'dd437ad97079318550a4fa2bd5b987fe'
p253
sI252
S'd3fabf6946d59b69ce52039159451465'
p254
sI253
S'dcc318bcb4a4036655a0843b4fe7942e'
p255
sI254
S'ed9d28f8b48cbbc22905eb0e4939a971'
p256
sI255
S'1c674f4da09702648fa1de63230a68de'
p257
sI256
S'1c674f4da09702648fa1de63230a68de'
p258
sI257
S'fd0de6977f28814aed2373bdad80f25f'
p259
sI258
S'81d84246a74d608f3ee63a106cbb043b'
p260
sI259
S'e3cdd573b784b958a109245064deaa1e'
p261
sI260
S'1c674f4da09702648fa1de63230a68de'
p262
sI261
S'e3cdd573b784b958a109245064deaa1e'
p263
sI262
S'c2ec79a92ef680fa66bf2e0f6b028d0b'
p264
sI263
S'e3cdd573b784b958a109245064deaa1e'
p265
sI264
S'dd437ad97079318550a4fa2bd5b987fe'
p266
sI265
S'1c674f4da09702648fa1de63230a68de'
p267
sI266
S'dcc318bcb4a4036655a0843b4fe7942e'
p268
sI267
S'dcc318bcb4a4036655a0843b4fe7942e'
p269
sI268
S'1c674f4da09702648fa1de63230a68de'
p270
sI269
S'ed9d28f8b48cbbc22905eb0e4939a971'
p271
sI270
S'dcc318bcb4a4036655a0843b4fe7942e'
p272
sI271
S'd3fabf6946d59b69ce52039159451465'
p273
sI272
S'1c674f4da09702648fa1de63230a68de'
p274
sI273
S'ed9d28f8b48cbbc22905eb0e4939a971'
p275
sI274
S'dcc318bcb4a4036655a0843b4fe7942e'
p276
sI275
S'dd437ad97079318550a4fa2bd5b987fe'
p277
sI276
S'dcc318bcb4a4036655a0843b4fe7942e'
p278
sI277
S'dcc318bcb4a4036655a0843b4fe7942e'
p279
sI278
S'1c674f4da09702648fa1de63230a68de'
p280
sI279
S'0cabd31fe66ee301d3071e16cb6779a3'
p281
sI280
S'dd437ad97079318550a4fa2bd5b987fe'
p282
sI281
S'e3cdd573b784b958a109245064deaa1e'
p283
sI282
S'ed9d28f8b48cbbc22905eb0e4939a971'
p284
sI283
S'ed9d28f8b48cbbc22905eb0e4939a971'
p285
sI284
S'84d409794875b336637ae806102bf883'
p286
sI285
S'd3fabf6946d59b69ce52039159451465'
p287
sI286
S'e3cdd573b784b958a109245064deaa1e'
p288
sI287
S'81d84246a74d608f3ee63a106cbb043b'
p289
sI288
S'c2ec79a92ef680fa66bf2e0f6b028d0b'
p290
sI289
S'dd437ad97079318550a4fa2bd5b987fe'
p291
sI290
S'e3cdd573b784b958a109245064deaa1e'
p292
sI291
S'ed9d28f8b48cbbc22905eb0e4939a971'
p293
sI292
S'ed9d28f8b48cbbc22905eb0e4939a971'
p294
sI293
S'c2ec79a92ef680fa66bf2e0f6b028d0b'
p295
sI294
S'c2ec79a92ef680fa66bf2e0f6b028d0b'
p296
sI295
S'c2ec79a92ef680fa66bf2e0f6b028d0b'
p297
sI296
S'1c674f4da09702648fa1de63230a68de'
p298
sI297
S'c2ec79a92ef680fa66bf2e0f6b028d0b'
p299
sI298
S'ed9d28f8b48cbbc22905eb0e4939a971'
p300
sI299
S'fd0de6977f28814aed2373bdad80f25f'
p301
sI300
S'c2ec79a92ef680fa66bf2e0f6b028d0b'
p302
sI301
S'fd0de6977f28814aed2373bdad80f25f'
p303
sI302
S'f343ac1a649ec733b717010b42dfbe52'
p304
sI303
S'c2ec79a92ef680fa66bf2e0f6b028d0b'
p305
sI304
S'e3cdd573b784b958a109245064deaa1e'
p306
sI305
S'dcc318bcb4a4036655a0843b4fe7942e'
p307
sI306
S'6aabca05271c39275b4aca27f6d954b3'
p308
sI307
S'1c674f4da09702648fa1de63230a68de'
p309
sI308
S'f343ac1a649ec733b717010b42dfbe52'
p310
sI309
S'e3cdd573b784b958a109245064deaa1e'
p311
sI310
S'0cabd31fe66ee301d3071e16cb6779a3'
p312
sI311
S'8dff47aa86a53489eb367e2a8e010da2'
p313
sI312
S'f343ac1a649ec733b717010b42dfbe52'
p314
sI313
S'1c674f4da09702648fa1de63230a68de'
p315
sI314
S'1c674f4da09702648fa1de63230a68de'
p316
sI315
S'ed9d28f8b48cbbc22905eb0e4939a971'
p317
sI316
S'e3cdd573b784b958a109245064deaa1e'
p318
sI317
S'dcc318bcb4a4036655a0843b4fe7942e'
p319
sI318
S'0cabd31fe66ee301d3071e16cb6779a3'
p320
sI319
S'ed9d28f8b48cbbc22905eb0e4939a971'
p321
sI320
S'dcc318bcb4a4036655a0843b4fe7942e'
p322
sI321
S'ed9d28f8b48cbbc22905eb0e4939a971'
p323
sI322
S'1c674f4da09702648fa1de63230a68de'
p324
sI323
S'c2ec79a92ef680fa66bf2e0f6b028d0b'
p325
sI324
S'dcc318bcb4a4036655a0843b4fe7942e'
p326
sI325
S'fd0de6977f28814aed2373bdad80f25f'
p327
sI326
S'ed9d28f8b48cbbc22905eb0e4939a971'
p328
sI327
S'ed9d28f8b48cbbc22905eb0e4939a971'
p329
sI328
S'e3cdd573b784b958a109245064deaa1e'
p330
sI329
S'ed9d28f8b48cbbc22905eb0e4939a971'
p331
sI330
S'd3fabf6946d59b69ce52039159451465'
p332
sI331
S'dcc318bcb4a4036655a0843b4fe7942e'
p333
sI332
S'fd0de6977f28814aed2373bdad80f25f'
p334
sI333
S'ed9d28f8b48cbbc22905eb0e4939a971'
p335
sI334
S'd3fabf6946d59b69ce52039159451465'
p336
sI335
S'ed9d28f8b48cbbc22905eb0e4939a971'
p337
sI336
S'ed9d28f8b48cbbc22905eb0e4939a971'
p338
sI337
S'd3fabf6946d59b69ce52039159451465'
p339
sI338
S'fd0de6977f28814aed2373bdad80f25f'
p340
sI339
S'ed9d28f8b48cbbc22905eb0e4939a971'
p341
sI340
S'c2ec79a92ef680fa66bf2e0f6b028d0b'
p342
sI341
S'dd437ad97079318550a4fa2bd5b987fe'
p343
sI342
S'dd437ad97079318550a4fa2bd5b987fe'
p344
sI343
S'bfce6ae57311e3589133b9f7b0fddd2e'
p345
sI344
S'e3cdd573b784b958a109245064deaa1e'
p346
sI345
S'c2ec79a92ef680fa66bf2e0f6b028d0b'
p347
sI346
S'c2ec79a92ef680fa66bf2e0f6b028d0b'
p348
sI347
S'ed9d28f8b48cbbc22905eb0e4939a971'
p349
sI348
S'dd437ad97079318550a4fa2bd5b987fe'
p350
sI349
S'ed9d28f8b48cbbc22905eb0e4939a971'
p351
sI350
S'c2ec79a92ef680fa66bf2e0f6b028d0b'
p352
sI351
S'ed9d28f8b48cbbc22905eb0e4939a971'
p353
sI352
S'a679f7ede37b1a73af88c572c8bc2de8'
p354
sI353
S'ed9d28f8b48cbbc22905eb0e4939a971'
p355
sI354
S'a679f7ede37b1a73af88c572c8bc2de8'
p356
sI355
S'a679f7ede37b1a73af88c572c8bc2de8'
p357
sI356
S'1c674f4da09702648fa1de63230a68de'
p358
sI357
S'c2ec79a92ef680fa66bf2e0f6b028d0b'
p359
sI358
S'c2ec79a92ef680fa66bf2e0f6b028d0b'
p360
sI359
S'c2ec79a92ef680fa66bf2e0f6b028d0b'
p361
sI360
S'e3cdd573b784b958a109245064deaa1e'
p362
sI361
S'e3cdd573b784b958a109245064deaa1e'
p363
sI362
S'ed9d28f8b48cbbc22905eb0e4939a971'
p364
sI363
S'c2ec79a92ef680fa66bf2e0f6b028d0b'
p365
sI364
S'c2ec79a92ef680fa66bf2e0f6b028d0b'
p366
sI365
S'fd0de6977f28814aed2373bdad80f25f'
p367
sI366
S'c2ec79a92ef680fa66bf2e0f6b028d0b'
p368
sI367
S'c2ec79a92ef680fa66bf2e0f6b028d0b'
p369
sI368
S'ed9d28f8b48cbbc22905eb0e4939a971'
p370
sI369
S'e3cdd573b784b958a109245064deaa1e'
p371
sI370
S'ed9d28f8b48cbbc22905eb0e4939a971'
p372
sI371
S'ed9d28f8b48cbbc22905eb0e4939a971'
p373
sI372
S'e3cdd573b784b958a109245064deaa1e'
p374
sI373
S'e3cdd573b784b958a109245064deaa1e'
p375
sI374
S'fd0de6977f28814aed2373bdad80f25f'
p376
sI375
S'c2ec79a92ef680fa66bf2e0f6b028d0b'
p377
sI376
S'c2ec79a92ef680fa66bf2e0f6b028d0b'
p378
sI377
S'ed9d28f8b48cbbc22905eb0e4939a971'
p379
sI378
S'dcc318bcb4a4036655a0843b4fe7942e'
p380
sI379
S'dd437ad97079318550a4fa2bd5b987fe'
p381
sI380
S'c2ec79a92ef680fa66bf2e0f6b028d0b'
p382
sI381
S'a679f7ede37b1a73af88c572c8bc2de8'
p383
sI382
S'fd0de6977f28814aed2373bdad80f25f'
p384
sI383
S'dcc318bcb4a4036655a0843b4fe7942e'
p385
sI384
S'ed9d28f8b48cbbc22905eb0e4939a971'
p386
sI385
S'c2ec79a92ef680fa66bf2e0f6b028d0b'
p387
sI386
S'c2ec79a92ef680fa66bf2e0f6b028d0b'
p388
sI387
S'e3cdd573b784b958a109245064deaa1e'
p389
sI388
S'fd0de6977f28814aed2373bdad80f25f'
p390
sI389
S'c2ec79a92ef680fa66bf2e0f6b028d0b'
p391
sI390
S'e3cdd573b784b958a109245064deaa1e'
p392
sI391
S'd3fabf6946d59b69ce52039159451465'
p393
sI392
S'a679f7ede37b1a73af88c572c8bc2de8'
p394
sI393
S'dd437ad97079318550a4fa2bd5b987fe'
p395
sI394
S'ed9d28f8b48cbbc22905eb0e4939a971'
p396
sI395
S'c21bc840cbe8b66eaa21f5ee89014837'
p397
sI396
S'dcc318bcb4a4036655a0843b4fe7942e'
p398
sI397
S'c2ec79a92ef680fa66bf2e0f6b028d0b'
p399
sI398
S'ed9d28f8b48cbbc22905eb0e4939a971'
p400
sI399
S'961baca73e7bcaa813ddb82c911af5ae'
p401
sI400
S'ed9d28f8b48cbbc22905eb0e4939a971'
p402
sI401
S'e3cdd573b784b958a109245064deaa1e'
p403
sI402
S'c2ec79a92ef680fa66bf2e0f6b028d0b'
p404
sI403
S'ed9d28f8b48cbbc22905eb0e4939a971'
p405
sI404
S'961baca73e7bcaa813ddb82c911af5ae'
p406
sI405
S'ed9d28f8b48cbbc22905eb0e4939a971'
p407
sI406
S'961baca73e7bcaa813ddb82c911af5ae'
p408
sI407
S'ed9d28f8b48cbbc22905eb0e4939a971'
p409
sI408
S'ed9d28f8b48cbbc22905eb0e4939a971'
p410
sI409
S'961baca73e7bcaa813ddb82c911af5ae'
p411
sI410
S'e3cdd573b784b958a109245064deaa1e'
p412
sI411
S'961baca73e7bcaa813ddb82c911af5ae'
p413
sI412
S'c2ec79a92ef680fa66bf2e0f6b028d0b'
p414
sI413
S'ed9d28f8b48cbbc22905eb0e4939a971'
p415
sI414
S'd3fabf6946d59b69ce52039159451465'
p416
sI415
S'c2ec79a92ef680fa66bf2e0f6b028d0b'
p417
sI416
S'c2ec79a92ef680fa66bf2e0f6b028d0b'
p418
sI417
S'c2ec79a92ef680fa66bf2e0f6b028d0b'
p419
sI418
S'c2ec79a92ef680fa66bf2e0f6b028d0b'
p420
sI419
S'c2ec79a92ef680fa66bf2e0f6b028d0b'
p421
sI420
S'ed9d28f8b48cbbc22905eb0e4939a971'
p422
sI421
S'fd0de6977f28814aed2373bdad80f25f'
p423
sI422
S'c2ec79a92ef680fa66bf2e0f6b028d0b'
p424
sI423
S'dd437ad97079318550a4fa2bd5b987fe'
p425
sI424
S'ed9d28f8b48cbbc22905eb0e4939a971'
p426
sI425
S'961baca73e7bcaa813ddb82c911af5ae'
p427
sI426
S'd3fabf6946d59b69ce52039159451465'
p428
sI427
S'fd0de6977f28814aed2373bdad80f25f'
p429
sI428
S'c2ec79a92ef680fa66bf2e0f6b028d0b'
p430
sI429
S'f343ac1a649ec733b717010b42dfbe52'
p431
sI430
S'c2ec79a92ef680fa66bf2e0f6b028d0b'
p432
sI431
S'dcc318bcb4a4036655a0843b4fe7942e'
p433
sI432
S'e9a166e354f57ce68da7aa5baed2875d'
p434
sI433
S'ed9d28f8b48cbbc22905eb0e4939a971'
p435
sI434
S'c2ec79a92ef680fa66bf2e0f6b028d0b'
p436
sI435
S'dcc318bcb4a4036655a0843b4fe7942e'
p437
sI436
S'c2ec79a92ef680fa66bf2e0f6b028d0b'
p438
sI437
S'fd0de6977f28814aed2373bdad80f25f'
p439
sI438
S'd3fabf6946d59b69ce52039159451465'
p440
sI439
S'e3cdd573b784b958a109245064deaa1e'
p441
sI440
S'ed9d28f8b48cbbc22905eb0e4939a971'
p442
sI441
S'e3cdd573b784b958a109245064deaa1e'
p443
sI442
S'f343ac1a649ec733b717010b42dfbe52'
p444
sI443
S'd3fabf6946d59b69ce52039159451465'
p445
sI444
S'ed9d28f8b48cbbc22905eb0e4939a971'
p446
sI445
S'e3cdd573b784b958a109245064deaa1e'
p447
sI446
S'ed9d28f8b48cbbc22905eb0e4939a971'
p448
sI447
S'b13f88228c65c83a5f6d245ac363ba94'
p449
sI448
S'ed9d28f8b48cbbc22905eb0e4939a971'
p450
sI449
S'ed9d28f8b48cbbc22905eb0e4939a971'
p451
sI450
S'ed9d28f8b48cbbc22905eb0e4939a971'
p452
sI451
S'dcc318bcb4a4036655a0843b4fe7942e'
p453
sI452
S'dcc318bcb4a4036655a0843b4fe7942e'
p454
sI453
S'dcc318bcb4a4036655a0843b4fe7942e'
p455
sI454
S'dcc318bcb4a4036655a0843b4fe7942e'
p456
sI455
S'dcc318bcb4a4036655a0843b4fe7942e'
p457
sI456
S'dcc318bcb4a4036655a0843b4fe7942e'
p458
sI457
S'b8627c2b2f73d5a0dd26893b64f9fd6a'
p459
sI458
S'b13f88228c65c83a5f6d245ac363ba94'
p460
sI459
S'fd0de6977f28814aed2373bdad80f25f'
p461
sI460
S'b13f88228c65c83a5f6d245ac363ba94'
p462
sI461
S'fd0de6977f28814aed2373bdad80f25f'
p463
sI462
S'c2ec79a92ef680fa66bf2e0f6b028d0b'
p464
sI463
S'dcc318bcb4a4036655a0843b4fe7942e'
p465
sI464
S'a679f7ede37b1a73af88c572c8bc2de8'
p466
sI465
S'e3cdd573b784b958a109245064deaa1e'
p467
sI466
S'fd0de6977f28814aed2373bdad80f25f'
p468
sI467
S'a679f7ede37b1a73af88c572c8bc2de8'
p469
sI468
S'b13f88228c65c83a5f6d245ac363ba94'
p470
sI469
S'b13f88228c65c83a5f6d245ac363ba94'
p471
sI470
S'c2ec79a92ef680fa66bf2e0f6b028d0b'
p472
sI471
S'b13f88228c65c83a5f6d245ac363ba94'
p473
sI472
S'c2ec79a92ef680fa66bf2e0f6b028d0b'
p474
sI473
S'961baca73e7bcaa813ddb82c911af5ae'
p475
sI474
S'b13f88228c65c83a5f6d245ac363ba94'
p476
sI475
S'ed9d28f8b48cbbc22905eb0e4939a971'
p477
sI476
S'c2ec79a92ef680fa66bf2e0f6b028d0b'
p478
sI477
S'a679f7ede37b1a73af88c572c8bc2de8'
p479
sI478
S'ed9d28f8b48cbbc22905eb0e4939a971'
p480
sI479
S'd3fabf6946d59b69ce52039159451465'
p481
sI480
S'b13f88228c65c83a5f6d245ac363ba94'
p482
sI481
S'fd0de6977f28814aed2373bdad80f25f'
p483
sI482
S'e9a166e354f57ce68da7aa5baed2875d'
p484
sI483
S'a679f7ede37b1a73af88c572c8bc2de8'
p485
sI484
S'dcc318bcb4a4036655a0843b4fe7942e'
p486
sI485
S'c2ec79a92ef680fa66bf2e0f6b028d0b'
p487
sI486
S'b13f88228c65c83a5f6d245ac363ba94'
p488
sI487
S'ed9d28f8b48cbbc22905eb0e4939a971'
p489
sI488
S'a679f7ede37b1a73af88c572c8bc2de8'
p490
sI489
S'd3fabf6946d59b69ce52039159451465'
p491
sI490
S'a679f7ede37b1a73af88c572c8bc2de8'
p492
sI491
S'a679f7ede37b1a73af88c572c8bc2de8'
p493
sI492
S'a679f7ede37b1a73af88c572c8bc2de8'
p494
sI493
S'a679f7ede37b1a73af88c572c8bc2de8'
p495
sI494
S'c2ec79a92ef680fa66bf2e0f6b028d0b'
p496
sI495
S'b13f88228c65c83a5f6d245ac363ba94'
p497
sI496
S'a679f7ede37b1a73af88c572c8bc2de8'
p498
sI497
S'a679f7ede37b1a73af88c572c8bc2de8'
p499
sI498
S'c2ec79a92ef680fa66bf2e0f6b028d0b'
p500
sI499
S'b13f88228c65c83a5f6d245ac363ba94'
p501
sI500
S'a679f7ede37b1a73af88c572c8bc2de8'
p502
sI501
S'd3fabf6946d59b69ce52039159451465'
p503
sI502
S'b1fb941b06bd75d0984ebd88f90f30dc'
p504
sI503
S'c2ec79a92ef680fa66bf2e0f6b028d0b'
p505
sI504
S'f343ac1a649ec733b717010b42dfbe52'
p506
sI505
S'c2ec79a92ef680fa66bf2e0f6b028d0b'
p507
sI506
S'c2ec79a92ef680fa66bf2e0f6b028d0b'
p508
sI507
S'fd0de6977f28814aed2373bdad80f25f'
p509
sI508
S'e3cdd573b784b958a109245064deaa1e'
p510
sI509
S'c2ec79a92ef680fa66bf2e0f6b028d0b'
p511
sI510
S'b13f88228c65c83a5f6d245ac363ba94'
p512
sI511
S'b13f88228c65c83a5f6d245ac363ba94'
p513
sI512
S'b13f88228c65c83a5f6d245ac363ba94'
p514
sI513
S'e9a166e354f57ce68da7aa5baed2875d'
p515
sI514
S'c2ec79a92ef680fa66bf2e0f6b028d0b'
p516
sI515
S'b13f88228c65c83a5f6d245ac363ba94'
p517
sI516
S'c2ec79a92ef680fa66bf2e0f6b028d0b'
p518
sI517
S'b13f88228c65c83a5f6d245ac363ba94'
p519
sI518
S'c2ec79a92ef680fa66bf2e0f6b028d0b'
p520
sI519
S'a679f7ede37b1a73af88c572c8bc2de8'
p521
sI520
S'c2ec79a92ef680fa66bf2e0f6b028d0b'
p522
sI521
S'd3fabf6946d59b69ce52039159451465'
p523
sI522
S'1c674f4da09702648fa1de63230a68de'
p524
sI523
S'c2ec79a92ef680fa66bf2e0f6b028d0b'
p525
sI524
S'a679f7ede37b1a73af88c572c8bc2de8'
p526
sI525
S'c2ec79a92ef680fa66bf2e0f6b028d0b'
p527
sI526
S'b13f88228c65c83a5f6d245ac363ba94'
p528
sI527
S'e3cdd573b784b958a109245064deaa1e'
p529
sI528
S'f343ac1a649ec733b717010b42dfbe52'
p530
sI529
S'c2ec79a92ef680fa66bf2e0f6b028d0b'
p531
sI530
S'a679f7ede37b1a73af88c572c8bc2de8'
p532
sI531
S'e3cdd573b784b958a109245064deaa1e'
p533
sI532
S'b13f88228c65c83a5f6d245ac363ba94'
p534
sI533
S'b13f88228c65c83a5f6d245ac363ba94'
p535
sI534
S'b13f88228c65c83a5f6d245ac363ba94'
p536
sI535
S'f343ac1a649ec733b717010b42dfbe52'
p537
sI536
S'd3fabf6946d59b69ce52039159451465'
p538
sI537
S'a679f7ede37b1a73af88c572c8bc2de8'
p539
sI538
S'c2ec79a92ef680fa66bf2e0f6b028d0b'
p540
sI539
S'c2ec79a92ef680fa66bf2e0f6b028d0b'
p541
sI540
S'c2ec79a92ef680fa66bf2e0f6b028d0b'
p542
sI541
S'c2ec79a92ef680fa66bf2e0f6b028d0b'
p543
sI542
S'c2ec79a92ef680fa66bf2e0f6b028d0b'
p544
sI543
S'c2ec79a92ef680fa66bf2e0f6b028d0b'
p545
sI544
S'b13f88228c65c83a5f6d245ac363ba94'
p546
sI545
S'0bada0c8f61a201a18bf4075141375d2'
p547
sI546
S'e9a166e354f57ce68da7aa5baed2875d'
p548
sI547
S'b13f88228c65c83a5f6d245ac363ba94'
p549
sI548
S'f343ac1a649ec733b717010b42dfbe52'
p550
sI549
S'0bada0c8f61a201a18bf4075141375d2'
p551
sI550
S'b13f88228c65c83a5f6d245ac363ba94'
p552
sI551
S'dcc318bcb4a4036655a0843b4fe7942e'
p553
sI552
S'b13f88228c65c83a5f6d245ac363ba94'
p554
sI553
S'c2ec79a92ef680fa66bf2e0f6b028d0b'
p555
sI554
S'b13f88228c65c83a5f6d245ac363ba94'
p556
sI555
S'c2ec79a92ef680fa66bf2e0f6b028d0b'
p557
sI556
S'c2ec79a92ef680fa66bf2e0f6b028d0b'
p558
sI557
S'dd437ad97079318550a4fa2bd5b987fe'
p559
sI558
S'c2ec79a92ef680fa66bf2e0f6b028d0b'
p560
sI559
S'c2ec79a92ef680fa66bf2e0f6b028d0b'
p561
sI560
S'dd437ad97079318550a4fa2bd5b987fe'
p562
sI561
S'c2ec79a92ef680fa66bf2e0f6b028d0b'
p563
sI562
S'b13f88228c65c83a5f6d245ac363ba94'
p564
sI563
S'b13f88228c65c83a5f6d245ac363ba94'
p565
sI564
S'dd437ad97079318550a4fa2bd5b987fe'
p566
sI565
S'b13f88228c65c83a5f6d245ac363ba94'
p567
sI566
S'e3cdd573b784b958a109245064deaa1e'
p568
sI567
S'f343ac1a649ec733b717010b42dfbe52'
p569
sI568
S'f343ac1a649ec733b717010b42dfbe52'
p570
sI569
S'a679f7ede37b1a73af88c572c8bc2de8'
p571
sI570
S'961baca73e7bcaa813ddb82c911af5ae'
p572
sI571
S'dd437ad97079318550a4fa2bd5b987fe'
p573
sI572
S'c2ec79a92ef680fa66bf2e0f6b028d0b'
p574
sI573
S'b13f88228c65c83a5f6d245ac363ba94'
p575
sI574
S'961baca73e7bcaa813ddb82c911af5ae'
p576
sI575
S'c2ec79a92ef680fa66bf2e0f6b028d0b'
p577
sI576
S'c2ec79a92ef680fa66bf2e0f6b028d0b'
p578
sI577
S'c2ec79a92ef680fa66bf2e0f6b028d0b'
p579
sI578
S'b13f88228c65c83a5f6d245ac363ba94'
p580
sI579
S'b13f88228c65c83a5f6d245ac363ba94'
p581
sI580
S'c2ec79a92ef680fa66bf2e0f6b028d0b'
p582
sI581
S'c2ec79a92ef680fa66bf2e0f6b028d0b'
p583
sI582
S'b13f88228c65c83a5f6d245ac363ba94'
p584
sI583
S'c2ec79a92ef680fa66bf2e0f6b028d0b'
p585
sI584
S'c2ec79a92ef680fa66bf2e0f6b028d0b'
p586
sI585
S'f343ac1a649ec733b717010b42dfbe52'
p587
sI586
S'fd0de6977f28814aed2373bdad80f25f'
p588
sI587
S'c2ec79a92ef680fa66bf2e0f6b028d0b'
p589
sI588
S'0bada0c8f61a201a18bf4075141375d2'
p590
sI589
S'c2ec79a92ef680fa66bf2e0f6b028d0b'
p591
sI590
S'a679f7ede37b1a73af88c572c8bc2de8'
p592
sI591
S'de7e55fd9dd7958af66476b841e9083c'
p593
sI592
S'fd0de6977f28814aed2373bdad80f25f'
p594
sI593
S'de7e55fd9dd7958af66476b841e9083c'
p595
sI594
S'a679f7ede37b1a73af88c572c8bc2de8'
p596
sI595
S'de7e55fd9dd7958af66476b841e9083c'
p597
sI596
S'a679f7ede37b1a73af88c572c8bc2de8'
p598
sI597
S'de7e55fd9dd7958af66476b841e9083c'
p599
sI598
S'c2ec79a92ef680fa66bf2e0f6b028d0b'
p600
sI599
S'b13f88228c65c83a5f6d245ac363ba94'
p601
sI600
S'c2ec79a92ef680fa66bf2e0f6b028d0b'
p602
sI601
S'81d84246a74d608f3ee63a106cbb043b'
p603
sI602
S'b13f88228c65c83a5f6d245ac363ba94'
p604
sI603
S'c2ec79a92ef680fa66bf2e0f6b028d0b'
p605
sI604
S'c2ec79a92ef680fa66bf2e0f6b028d0b'
p606
sI605
S'dcc318bcb4a4036655a0843b4fe7942e'
p607
sI606
S'b13f88228c65c83a5f6d245ac363ba94'
p608
sI607
S'd3fabf6946d59b69ce52039159451465'
p609
sI608
S'fd0de6977f28814aed2373bdad80f25f'
p610
sI609
S'b13f88228c65c83a5f6d245ac363ba94'
p611
sI610
S'b13f88228c65c83a5f6d245ac363ba94'
p612
sI611
S'd3fabf6946d59b69ce52039159451465'
p613
sI612
S'dcc318bcb4a4036655a0843b4fe7942e'
p614
sI613
S'c2ec79a92ef680fa66bf2e0f6b028d0b'
p615
sI614
S'961baca73e7bcaa813ddb82c911af5ae'
p616
sI615
S'dcc318bcb4a4036655a0843b4fe7942e'
p617
sI616
S'b13f88228c65c83a5f6d245ac363ba94'
p618
sI617
S'b13f88228c65c83a5f6d245ac363ba94'
p619
sI618
S'c2ec79a92ef680fa66bf2e0f6b028d0b'
p620
sI619
S'b13f88228c65c83a5f6d245ac363ba94'
p621
sI620
S'b13f88228c65c83a5f6d245ac363ba94'
p622
sI621
S'b13f88228c65c83a5f6d245ac363ba94'
p623
sI622
S'e9a166e354f57ce68da7aa5baed2875d'
p624
sI623
S'e9a166e354f57ce68da7aa5baed2875d'
p625
sI624
S'c2ec79a92ef680fa66bf2e0f6b028d0b'
p626
sI625
S'c2ec79a92ef680fa66bf2e0f6b028d0b'
p627
sI626
S'b1fb941b06bd75d0984ebd88f90f30dc'
p628
sI627
S'961baca73e7bcaa813ddb82c911af5ae'
p629
sI628
S'fd0de6977f28814aed2373bdad80f25f'
p630
sI629
S'c21bc840cbe8b66eaa21f5ee89014837'
p631
sI630
S'961baca73e7bcaa813ddb82c911af5ae'
p632
sI631
S'c21bc840cbe8b66eaa21f5ee89014837'
p633
sI632
S'e3cdd573b784b958a109245064deaa1e'
p634
sI633
S'fd0de6977f28814aed2373bdad80f25f'
p635
sI634
S'961baca73e7bcaa813ddb82c911af5ae'
p636
sI635
S'961baca73e7bcaa813ddb82c911af5ae'
p637
sI636
S'c2ec79a92ef680fa66bf2e0f6b028d0b'
p638
sI637
S'c21bc840cbe8b66eaa21f5ee89014837'
p639
sI638
S'e3cdd573b784b958a109245064deaa1e'
p640
sI639
S'dcc318bcb4a4036655a0843b4fe7942e'
p641
sI640
S'fd0de6977f28814aed2373bdad80f25f'
p642
sI641
S'e3cdd573b784b958a109245064deaa1e'
p643
sI642
S'c2ec79a92ef680fa66bf2e0f6b028d0b'
p644
sI643
S'f343ac1a649ec733b717010b42dfbe52'
p645
sI644
S'f343ac1a649ec733b717010b42dfbe52'
p646
sI645
S'f343ac1a649ec733b717010b42dfbe52'
p647
sI646
S'fd0de6977f28814aed2373bdad80f25f'
p648
sI647
S'b13f88228c65c83a5f6d245ac363ba94'
p649
sI648
S'0bada0c8f61a201a18bf4075141375d2'
p650
sI649
S'ed9d28f8b48cbbc22905eb0e4939a971'
p651
sI650
S'f343ac1a649ec733b717010b42dfbe52'
p652
sI651
S'e3cdd573b784b958a109245064deaa1e'
p653
sI652
S'a679f7ede37b1a73af88c572c8bc2de8'
p654
sI653
S'a679f7ede37b1a73af88c572c8bc2de8'
p655
sI654
S'a679f7ede37b1a73af88c572c8bc2de8'
p656
sI655
S'e3cdd573b784b958a109245064deaa1e'
p657
sI656
S'a679f7ede37b1a73af88c572c8bc2de8'
p658
sI657
S'a679f7ede37b1a73af88c572c8bc2de8'
p659
sI658
S'8fcb64811fd61f1c81c31cd3197f4b6c'
p660
sI659
S'a679f7ede37b1a73af88c572c8bc2de8'
p661
sI660
S'a679f7ede37b1a73af88c572c8bc2de8'
p662
sI661
S'a679f7ede37b1a73af88c572c8bc2de8'
p663
sI662
S'a679f7ede37b1a73af88c572c8bc2de8'
p664
sI663
S'a679f7ede37b1a73af88c572c8bc2de8'
p665
sI664
S'a679f7ede37b1a73af88c572c8bc2de8'
p666
sI665
S'd3fabf6946d59b69ce52039159451465'
p667
sI666
S'dcc318bcb4a4036655a0843b4fe7942e'
p668
sI667
S'ed9d28f8b48cbbc22905eb0e4939a971'
p669
sI668
S'c2ec79a92ef680fa66bf2e0f6b028d0b'
p670
sI669
S'0bada0c8f61a201a18bf4075141375d2'
p671
sI670
S'c2ec79a92ef680fa66bf2e0f6b028d0b'
p672
sI671
S'c2ec79a92ef680fa66bf2e0f6b028d0b'
p673
sI672
S'c2ec79a92ef680fa66bf2e0f6b028d0b'
p674
sI673
S'0bada0c8f61a201a18bf4075141375d2'
p675
sI674
S'c2ec79a92ef680fa66bf2e0f6b028d0b'
p676
sI675
S'b13f88228c65c83a5f6d245ac363ba94'
p677
sI676
S'c2ec79a92ef680fa66bf2e0f6b028d0b'
p678
sI677
S'f343ac1a649ec733b717010b42dfbe52'
p679
sI678
S'dcc318bcb4a4036655a0843b4fe7942e'
p680
sI679
S'961baca73e7bcaa813ddb82c911af5ae'
p681
sI680
S'c2ec79a92ef680fa66bf2e0f6b028d0b'
p682
sI681
S'd3fabf6946d59b69ce52039159451465'
p683
sI682
S'e3cdd573b784b958a109245064deaa1e'
p684
sI683
S'f343ac1a649ec733b717010b42dfbe52'
p685
sI684
S'ed9d28f8b48cbbc22905eb0e4939a971'
p686
sI685
S'f343ac1a649ec733b717010b42dfbe52'
p687
sI686
S'e9a166e354f57ce68da7aa5baed2875d'
p688
sI687
S'e9a166e354f57ce68da7aa5baed2875d'
p689
sI688
S'c2ec79a92ef680fa66bf2e0f6b028d0b'
p690
sI689
S'961baca73e7bcaa813ddb82c911af5ae'
p691
sI690
S'07ebe859a1b1368d566d7c4770590bf0'
p692
sI691
S'dd437ad97079318550a4fa2bd5b987fe'
p693
sI692
S'c2ec79a92ef680fa66bf2e0f6b028d0b'
p694
sI693
S'c2ec79a92ef680fa66bf2e0f6b028d0b'
p695
sI694
S'ed9d28f8b48cbbc22905eb0e4939a971'
p696
sI695
S'e9a166e354f57ce68da7aa5baed2875d'
p697
sI696
S'81d84246a74d608f3ee63a106cbb043b'
p698
sI697
S'a679f7ede37b1a73af88c572c8bc2de8'
p699
sI698
S'c2ec79a92ef680fa66bf2e0f6b028d0b'
p700
sI699
S'c2ec79a92ef680fa66bf2e0f6b028d0b'
p701
sI700
S'81d84246a74d608f3ee63a106cbb043b'
p702
sI701
S'961baca73e7bcaa813ddb82c911af5ae'
p703
sI702
S'e9a166e354f57ce68da7aa5baed2875d'
p704
sI703
S'c2ec79a92ef680fa66bf2e0f6b028d0b'
p705
sI704
S'a679f7ede37b1a73af88c572c8bc2de8'
p706
sI705
S'c2ec79a92ef680fa66bf2e0f6b028d0b'
p707
sI706
S'a679f7ede37b1a73af88c572c8bc2de8'
p708
sI707
S'a679f7ede37b1a73af88c572c8bc2de8'
p709
sI708
S'e9a166e354f57ce68da7aa5baed2875d'
p710
sI709
S'c21bc840cbe8b66eaa21f5ee89014837'
p711
sI710
S'c21bc840cbe8b66eaa21f5ee89014837'
p712
sI711
S'e9a166e354f57ce68da7aa5baed2875d'
p713
sI712
S'c21bc840cbe8b66eaa21f5ee89014837'
p714
sI713
S'c21bc840cbe8b66eaa21f5ee89014837'
p715
sI714
S'e3cdd573b784b958a109245064deaa1e'
p716
sI715
S'c21bc840cbe8b66eaa21f5ee89014837'
p717
sI716
S'ed9d28f8b48cbbc22905eb0e4939a971'
p718
sI717
S'c2ec79a92ef680fa66bf2e0f6b028d0b'
p719
sI718
S'dd437ad97079318550a4fa2bd5b987fe'
p720
sI719
S'ed9d28f8b48cbbc22905eb0e4939a971'
p721
sI720
S'81d84246a74d608f3ee63a106cbb043b'
p722
sI721
S'de7e55fd9dd7958af66476b841e9083c'
p723
sI722
S'c21bc840cbe8b66eaa21f5ee89014837'
p724
sI723
S'dd437ad97079318550a4fa2bd5b987fe'
p725
sI724
S'961baca73e7bcaa813ddb82c911af5ae'
p726
sI725
S'c21bc840cbe8b66eaa21f5ee89014837'
p727
sI726
S'b13f88228c65c83a5f6d245ac363ba94'
p728
sI727
S'd3fabf6946d59b69ce52039159451465'
p729
sI728
S'd3fabf6946d59b69ce52039159451465'
p730
sI729
S'ed9d28f8b48cbbc22905eb0e4939a971'
p731
sI730
S'e3cdd573b784b958a109245064deaa1e'
p732
sI731
S'c2ec79a92ef680fa66bf2e0f6b028d0b'
p733
sI732
S'81d84246a74d608f3ee63a106cbb043b'
p734
sI733
S'81d84246a74d608f3ee63a106cbb043b'
p735
sI734
S'c2ec79a92ef680fa66bf2e0f6b028d0b'
p736
sI735
S'dd437ad97079318550a4fa2bd5b987fe'
p737
sI736
S'c2ec79a92ef680fa66bf2e0f6b028d0b'
p738
sI737
S'c2ec79a92ef680fa66bf2e0f6b028d0b'
p739
sI738
S'b13f88228c65c83a5f6d245ac363ba94'
p740
sI739
S'c2ec79a92ef680fa66bf2e0f6b028d0b'
p741
sI740
S'c2ec79a92ef680fa66bf2e0f6b028d0b'
p742
sI741
S'dd437ad97079318550a4fa2bd5b987fe'
p743
sI742
S'c2ec79a92ef680fa66bf2e0f6b028d0b'
p744
sI743
S'd3fabf6946d59b69ce52039159451465'
p745
sI744
S'a679f7ede37b1a73af88c572c8bc2de8'
p746
sI745
S'c21bc840cbe8b66eaa21f5ee89014837'
p747
sI746
S'a679f7ede37b1a73af88c572c8bc2de8'
p748
sI747
S'c2ec79a92ef680fa66bf2e0f6b028d0b'
p749
sI748
S'a679f7ede37b1a73af88c572c8bc2de8'
p750
sI749
S'c21bc840cbe8b66eaa21f5ee89014837'
p751
sI750
S'de7e55fd9dd7958af66476b841e9083c'
p752
sI751
S'c2ec79a92ef680fa66bf2e0f6b028d0b'
p753
sI752
S'dcc318bcb4a4036655a0843b4fe7942e'
p754
sI753
S'c21bc840cbe8b66eaa21f5ee89014837'
p755
sI754
S'ed9d28f8b48cbbc22905eb0e4939a971'
p756
sI755
S'b13f88228c65c83a5f6d245ac363ba94'
p757
sI756
S'c21bc840cbe8b66eaa21f5ee89014837'
p758
sI757
S'ed9d28f8b48cbbc22905eb0e4939a971'
p759
sI758
S'f343ac1a649ec733b717010b42dfbe52'
p760
sI759
S'dcc318bcb4a4036655a0843b4fe7942e'
p761
sI760
S'c21bc840cbe8b66eaa21f5ee89014837'
p762
sI761
S'c2ec79a92ef680fa66bf2e0f6b028d0b'
p763
sI762
S'd3fabf6946d59b69ce52039159451465'
p764
sI763
S'c2ec79a92ef680fa66bf2e0f6b028d0b'
p765
sI764
S'c21bc840cbe8b66eaa21f5ee89014837'
p766
sI765
S'c21bc840cbe8b66eaa21f5ee89014837'
p767
sI766
S'c2ec79a92ef680fa66bf2e0f6b028d0b'
p768
sI767
S'81d84246a74d608f3ee63a106cbb043b'
p769
sI768
S'b13f88228c65c83a5f6d245ac363ba94'
p770
sI769
S'ed9d28f8b48cbbc22905eb0e4939a971'
p771
sI770
S'fd0de6977f28814aed2373bdad80f25f'
p772
sI771
S'ed9d28f8b48cbbc22905eb0e4939a971'
p773
sI772
S'e3cdd573b784b958a109245064deaa1e'
p774
sI773
S'ed9d28f8b48cbbc22905eb0e4939a971'
p775
sI774
S'961baca73e7bcaa813ddb82c911af5ae'
p776
sI775
S'a679f7ede37b1a73af88c572c8bc2de8'
p777
sI776
S'fd0de6977f28814aed2373bdad80f25f'
p778
sI777
S'c2ec79a92ef680fa66bf2e0f6b028d0b'
p779
sI778
S'ed9d28f8b48cbbc22905eb0e4939a971'
p780
sI779
S'ed9d28f8b48cbbc22905eb0e4939a971'
p781
sI780
S'dd437ad97079318550a4fa2bd5b987fe'
p782
sI781
S'a679f7ede37b1a73af88c572c8bc2de8'
p783
sI782
S'd3fabf6946d59b69ce52039159451465'
p784
sI783
S'a679f7ede37b1a73af88c572c8bc2de8'
p785
sI784
S'd3fabf6946d59b69ce52039159451465'
p786
sI785
S'a679f7ede37b1a73af88c572c8bc2de8'
p787
sI786
S'd3fabf6946d59b69ce52039159451465'
p788
sI787
S'81d84246a74d608f3ee63a106cbb043b'
p789
sI788
S'c21bc840cbe8b66eaa21f5ee89014837'
p790
sI789
S'c21bc840cbe8b66eaa21f5ee89014837'
p791
sI790
S'b13f88228c65c83a5f6d245ac363ba94'
p792
sI791
S'e3cdd573b784b958a109245064deaa1e'
p793
sI792
S'e9a166e354f57ce68da7aa5baed2875d'
p794
sI793
S'dcc318bcb4a4036655a0843b4fe7942e'
p795
sI794
S'e9a166e354f57ce68da7aa5baed2875d'
p796
sI795
S'ed9d28f8b48cbbc22905eb0e4939a971'
p797
sI796
S'ed9d28f8b48cbbc22905eb0e4939a971'
p798
sI797
S'e9a166e354f57ce68da7aa5baed2875d'
p799
sI798
S'961baca73e7bcaa813ddb82c911af5ae'
p800
sI799
S'e3cdd573b784b958a109245064deaa1e'
p801
sI800
S'961baca73e7bcaa813ddb82c911af5ae'
p802
sI801
S'dd437ad97079318550a4fa2bd5b987fe'
p803
sI802
S'e9a166e354f57ce68da7aa5baed2875d'
p804
sI803
S'dcc318bcb4a4036655a0843b4fe7942e'
p805
sI804
S'dcc318bcb4a4036655a0843b4fe7942e'
p806
sI805
S'81d84246a74d608f3ee63a106cbb043b'
p807
sI806
S'b13f88228c65c83a5f6d245ac363ba94'
p808
sI807
S'81d84246a74d608f3ee63a106cbb043b'
p809
sI808
S'e9a166e354f57ce68da7aa5baed2875d'
p810
sI809
S'c2ec79a92ef680fa66bf2e0f6b028d0b'
p811
sI810
S'81d84246a74d608f3ee63a106cbb043b'
p812
sI811
S'e3cdd573b784b958a109245064deaa1e'
p813
sI812
S'e3cdd573b784b958a109245064deaa1e'
p814
sI813
S'961baca73e7bcaa813ddb82c911af5ae'
p815
sI814
S'e9a166e354f57ce68da7aa5baed2875d'
p816
sI815
S'e3cdd573b784b958a109245064deaa1e'
p817
sI816
S'e3cdd573b784b958a109245064deaa1e'
p818
sI817
S'ed9d28f8b48cbbc22905eb0e4939a971'
p819
sI818
S'81d84246a74d608f3ee63a106cbb043b'
p820
sI819
S'ed9d28f8b48cbbc22905eb0e4939a971'
p821
sI820
S'e3cdd573b784b958a109245064deaa1e'
p822
sI821
S'a679f7ede37b1a73af88c572c8bc2de8'
p823
sI822
S'c2ec79a92ef680fa66bf2e0f6b028d0b'
p824
sI823
S'a679f7ede37b1a73af88c572c8bc2de8'
p825
sI824
S'a679f7ede37b1a73af88c572c8bc2de8'
p826
sI825
S'0bada0c8f61a201a18bf4075141375d2'
p827
sI826
S'c2ec79a92ef680fa66bf2e0f6b028d0b'
p828
sI827
S'ffa96a13101c4baee282ee042ace2192'
p829
sI828
S'c2ec79a92ef680fa66bf2e0f6b028d0b'
p830
sI829
S'e3cdd573b784b958a109245064deaa1e'
p831
sI830
S'c2ec79a92ef680fa66bf2e0f6b028d0b'
p832
sI831
S'ed9d28f8b48cbbc22905eb0e4939a971'
p833
sI832
S'ed9d28f8b48cbbc22905eb0e4939a971'
p834
sI833
S'c2ec79a92ef680fa66bf2e0f6b028d0b'
p835
sI834
S'd3fabf6946d59b69ce52039159451465'
p836
sI835
S'a679f7ede37b1a73af88c572c8bc2de8'
p837
sI836
S'd3fabf6946d59b69ce52039159451465'
p838
sI837
S'b13f88228c65c83a5f6d245ac363ba94'
p839
sI838
S'c2ec79a92ef680fa66bf2e0f6b028d0b'
p840
sI839
S'81d84246a74d608f3ee63a106cbb043b'
p841
sI840
S'fd0de6977f28814aed2373bdad80f25f'
p842
sI841
S'd3fabf6946d59b69ce52039159451465'
p843
sI842
S'c2ec79a92ef680fa66bf2e0f6b028d0b'
p844
sI843
S'fd0de6977f28814aed2373bdad80f25f'
p845
sI844
S'961baca73e7bcaa813ddb82c911af5ae'
p846
sI845
S'ed9d28f8b48cbbc22905eb0e4939a971'
p847
sI846
S'961baca73e7bcaa813ddb82c911af5ae'
p848
sI847
S'dd437ad97079318550a4fa2bd5b987fe'
p849
sI848
S'c2ec79a92ef680fa66bf2e0f6b028d0b'
p850
sI849
S'c21bc840cbe8b66eaa21f5ee89014837'
p851
sI850
S'e3cdd573b784b958a109245064deaa1e'
p852
sI851
S'de7e55fd9dd7958af66476b841e9083c'
p853
sI852
S'd3fabf6946d59b69ce52039159451465'
p854
sI853
S'81d84246a74d608f3ee63a106cbb043b'
p855
sI854
S'a679f7ede37b1a73af88c572c8bc2de8'
p856
sI855
S'c2ec79a92ef680fa66bf2e0f6b028d0b'
p857
sI856
S'a679f7ede37b1a73af88c572c8bc2de8'
p858
sI857
S'b13f88228c65c83a5f6d245ac363ba94'
p859
sI858
S'a679f7ede37b1a73af88c572c8bc2de8'
p860
sI859
S'ed9d28f8b48cbbc22905eb0e4939a971'
p861
sI860
S'8fcb64811fd61f1c81c31cd3197f4b6c'
p862
sI861
S'c21bc840cbe8b66eaa21f5ee89014837'
p863
sI862
S'a679f7ede37b1a73af88c572c8bc2de8'
p864
sI863
S'dcc318bcb4a4036655a0843b4fe7942e'
p865
sI864
S'c21bc840cbe8b66eaa21f5ee89014837'
p866
sI865
S'b13f88228c65c83a5f6d245ac363ba94'
p867
sI866
S'f343ac1a649ec733b717010b42dfbe52'
p868
sI867
S'1c674f4da09702648fa1de63230a68de'
p869
sI868
S'a679f7ede37b1a73af88c572c8bc2de8'
p870
sI869
S'b13f88228c65c83a5f6d245ac363ba94'
p871
sI870
S'e3cdd573b784b958a109245064deaa1e'
p872
sI871
S'c2ec79a92ef680fa66bf2e0f6b028d0b'
p873
sI872
S'b13f88228c65c83a5f6d245ac363ba94'
p874
sI873
S'e9a166e354f57ce68da7aa5baed2875d'
p875
sI874
S'b13f88228c65c83a5f6d245ac363ba94'
p876
sI875
S'd3fabf6946d59b69ce52039159451465'
p877
sI876
S'b13f88228c65c83a5f6d245ac363ba94'
p878
sI877
S'ed9d28f8b48cbbc22905eb0e4939a971'
p879
sI878
S'b13f88228c65c83a5f6d245ac363ba94'
p880
sI879
S'c21bc840cbe8b66eaa21f5ee89014837'
p881
sI880
S'b13f88228c65c83a5f6d245ac363ba94'
p882
sI881
S'ed9d28f8b48cbbc22905eb0e4939a971'
p883
sI882
S'd3fabf6946d59b69ce52039159451465'
p884
sI883
S'c21bc840cbe8b66eaa21f5ee89014837'
p885
sI884
S'd3fabf6946d59b69ce52039159451465'
p886
sI885
S'b13f88228c65c83a5f6d245ac363ba94'
p887
sI886
S'81d84246a74d608f3ee63a106cbb043b'
p888
sI887
S'f343ac1a649ec733b717010b42dfbe52'
p889
sI888
S'c21bc840cbe8b66eaa21f5ee89014837'
p890
sI889
S'b13f88228c65c83a5f6d245ac363ba94'
p891
sI890
S'b13f88228c65c83a5f6d245ac363ba94'
p892
sI891
S'c2ec79a92ef680fa66bf2e0f6b028d0b'
p893
sI892
S'e3cdd573b784b958a109245064deaa1e'
p894
sI893
S'ed9d28f8b48cbbc22905eb0e4939a971'
p895
sI894
S'b13f88228c65c83a5f6d245ac363ba94'
p896
sI895
S'b13f88228c65c83a5f6d245ac363ba94'
p897
sI896
S'b13f88228c65c83a5f6d245ac363ba94'
p898
sI897
S'c2ec79a92ef680fa66bf2e0f6b028d0b'
p899
sI898
S'b13f88228c65c83a5f6d245ac363ba94'
p900
sI899
S'd3fabf6946d59b69ce52039159451465'
p901
sI900
S'b13f88228c65c83a5f6d245ac363ba94'
p902
sI901
S'b13f88228c65c83a5f6d245ac363ba94'
p903
sI902
S'b13f88228c65c83a5f6d245ac363ba94'
p904
sI903
S'b13f88228c65c83a5f6d245ac363ba94'
p905
sI904
S'b13f88228c65c83a5f6d245ac363ba94'
p906
sI905
S'ed9d28f8b48cbbc22905eb0e4939a971'
p907
sI906
S'c21bc840cbe8b66eaa21f5ee89014837'
p908
sI907
S'b13f88228c65c83a5f6d245ac363ba94'
p909
sI908
S'8fcb64811fd61f1c81c31cd3197f4b6c'
p910
sI909
S'c21bc840cbe8b66eaa21f5ee89014837'
p911
sI910
S'c21bc840cbe8b66eaa21f5ee89014837'
p912
sI911
S'd3fabf6946d59b69ce52039159451465'
p913
sI912
S'e9a166e354f57ce68da7aa5baed2875d'
p914
sI913
S'c21bc840cbe8b66eaa21f5ee89014837'
p915
sI914
S'b13f88228c65c83a5f6d245ac363ba94'
p916
sI915
S'c2ec79a92ef680fa66bf2e0f6b028d0b'
p917
sI916
S'e3cdd573b784b958a109245064deaa1e'
p918
sI917
S'81d84246a74d608f3ee63a106cbb043b'
p919
sI918
S'c2ec79a92ef680fa66bf2e0f6b028d0b'
p920
sI919
S'a679f7ede37b1a73af88c572c8bc2de8'
p921
sI920
S'c2ec79a92ef680fa66bf2e0f6b028d0b'
p922
sI921
S'c2ec79a92ef680fa66bf2e0f6b028d0b'
p923
sI922
S'b13f88228c65c83a5f6d245ac363ba94'
p924
sI923
S'd3fabf6946d59b69ce52039159451465'
p925
sI924
S'a679f7ede37b1a73af88c572c8bc2de8'
p926
sI925
S'a679f7ede37b1a73af88c572c8bc2de8'
p927
sI926
S'c2ec79a92ef680fa66bf2e0f6b028d0b'
p928
sI927
S'b13f88228c65c83a5f6d245ac363ba94'
p929
sI928
S'e3cdd573b784b958a109245064deaa1e'
p930
sI929
S'b13f88228c65c83a5f6d245ac363ba94'
p931
sI930
S'c2ec79a92ef680fa66bf2e0f6b028d0b'
p932
sI931
S'c2ec79a92ef680fa66bf2e0f6b028d0b'
p933
sI932
S'b13f88228c65c83a5f6d245ac363ba94'
p934
sI933
S'31e6507a6c9e3dd9b612d9ecf0dd19f2'
p935
sI934
S'a679f7ede37b1a73af88c572c8bc2de8'
p936
sI935
S'6aabca05271c39275b4aca27f6d954b3'
p937
sI936
S'c2ec79a92ef680fa66bf2e0f6b028d0b'
p938
sI937
S'ed9d28f8b48cbbc22905eb0e4939a971'
p939
sI938
S'b13f88228c65c83a5f6d245ac363ba94'
p940
sI939
S'81d84246a74d608f3ee63a106cbb043b'
p941
sI940
S'fd0de6977f28814aed2373bdad80f25f'
p942
sI941
S'ed9d28f8b48cbbc22905eb0e4939a971'
p943
sI942
S'961baca73e7bcaa813ddb82c911af5ae'
p944
sI943
S'f343ac1a649ec733b717010b42dfbe52'
p945
sI944
S'2d62d55be4b8cee432ff50fcc58f7c0f'
p946
sI945
S'f343ac1a649ec733b717010b42dfbe52'
p947
sI946
S'ed9d28f8b48cbbc22905eb0e4939a971'
p948
sI947
S'ed9d28f8b48cbbc22905eb0e4939a971'
p949
sI948
S'c21bc840cbe8b66eaa21f5ee89014837'
p950
sI949
S'31e6507a6c9e3dd9b612d9ecf0dd19f2'
p951
sI950
S'c21bc840cbe8b66eaa21f5ee89014837'
p952
sI951
S'ed9d28f8b48cbbc22905eb0e4939a971'
p953
sI952
S'c21bc840cbe8b66eaa21f5ee89014837'
p954
sI953
S'c21bc840cbe8b66eaa21f5ee89014837'
p955
sI954
S'c21bc840cbe8b66eaa21f5ee89014837'
p956
sI955
S'c2ec79a92ef680fa66bf2e0f6b028d0b'
p957
sI956
S'd3fabf6946d59b69ce52039159451465'
p958
sI957
S'c21bc840cbe8b66eaa21f5ee89014837'
p959
sI958
S'c21bc840cbe8b66eaa21f5ee89014837'
p960
sI959
S'c21bc840cbe8b66eaa21f5ee89014837'
p961
sI960
S'c21bc840cbe8b66eaa21f5ee89014837'
p962
sI961
S'c21bc840cbe8b66eaa21f5ee89014837'
p963
sI962
S'dcc318bcb4a4036655a0843b4fe7942e'
p964
sI963
S'd3fabf6946d59b69ce52039159451465'
p965
sI964
S'c21bc840cbe8b66eaa21f5ee89014837'
p966
sI965
S'c21bc840cbe8b66eaa21f5ee89014837'
p967
sI966
S'c21bc840cbe8b66eaa21f5ee89014837'
p968
sI967
S'ed9d28f8b48cbbc22905eb0e4939a971'
p969
sI968
S'c21bc840cbe8b66eaa21f5ee89014837'
p970
sI969
S'c2ec79a92ef680fa66bf2e0f6b028d0b'
p971
sI970
S'c21bc840cbe8b66eaa21f5ee89014837'
p972
sI971
S'd3fabf6946d59b69ce52039159451465'
p973
sI972
S'81d84246a74d608f3ee63a106cbb043b'
p974
sI973
S'ed9d28f8b48cbbc22905eb0e4939a971'
p975
sI974
S'c2ec79a92ef680fa66bf2e0f6b028d0b'
p976
sI975
S'c2ec79a92ef680fa66bf2e0f6b028d0b'
p977
sI976
S'81d84246a74d608f3ee63a106cbb043b'
p978
sI977
S'81d84246a74d608f3ee63a106cbb043b'
p979
sI978
S'ed9d28f8b48cbbc22905eb0e4939a971'
p980
sI979
S'81d84246a74d608f3ee63a106cbb043b'
p981
sI980
S'b13f88228c65c83a5f6d245ac363ba94'
p982
sI981
S'c21bc840cbe8b66eaa21f5ee89014837'
p983
sI982
S'81d84246a74d608f3ee63a106cbb043b'
p984
sI983
S'c2ec79a92ef680fa66bf2e0f6b028d0b'
p985
sI984
S'e3cdd573b784b958a109245064deaa1e'
p986
sI985
S'ed9d28f8b48cbbc22905eb0e4939a971'
p987
sI986
S'c21bc840cbe8b66eaa21f5ee89014837'
p988
sI987
S'b13f88228c65c83a5f6d245ac363ba94'
p989
sI988
S'2d62d55be4b8cee432ff50fcc58f7c0f'
p990
sI989
S'c2ec79a92ef680fa66bf2e0f6b028d0b'
p991
sI990
S'81d84246a74d608f3ee63a106cbb043b'
p992
sI991
S'c21bc840cbe8b66eaa21f5ee89014837'
p993
sI992
S'ed9d28f8b48cbbc22905eb0e4939a971'
p994
sI993
S'c2ec79a92ef680fa66bf2e0f6b028d0b'
p995
sI994
S'c21bc840cbe8b66eaa21f5ee89014837'
p996
sI995
S'b13f88228c65c83a5f6d245ac363ba94'
p997
sI996
S'd3fabf6946d59b69ce52039159451465'
p998
sI997
S'65fb2f3d116f165cb28bc06b9193698d'
p999
sI998
S'c21bc840cbe8b66eaa21f5ee89014837'
p1000
sI999
S'ed9d28f8b48cbbc22905eb0e4939a971'
p1001
sI1000
S'dcc318bcb4a4036655a0843b4fe7942e'
p1002
sI1001
S'b13f88228c65c83a5f6d245ac363ba94'
p1003
sI1002
S'c21bc840cbe8b66eaa21f5ee89014837'
p1004
sI1003
S'c21bc840cbe8b66eaa21f5ee89014837'
p1005
sI1004
S'dcc318bcb4a4036655a0843b4fe7942e'
p1006
sI1005
S'c21bc840cbe8b66eaa21f5ee89014837'
p1007
sI1006
S'dcc318bcb4a4036655a0843b4fe7942e'
p1008
sI1007
S'ed9d28f8b48cbbc22905eb0e4939a971'
p1009
sI1008
S'81d84246a74d608f3ee63a106cbb043b'
p1010
sI1009
S'd3fabf6946d59b69ce52039159451465'
p1011
sI1010
S'b13f88228c65c83a5f6d245ac363ba94'
p1012
sI1011
S'd3fabf6946d59b69ce52039159451465'
p1013
sI1012
S'b13f88228c65c83a5f6d245ac363ba94'
p1014
sI1013
S'9319fcefef4c46f05ee84e13f48b1751'
p1015
sI1014
S'ed9d28f8b48cbbc22905eb0e4939a971'
p1016
sI1015
S'ed9d28f8b48cbbc22905eb0e4939a971'
p1017
sI1016
S'b13f88228c65c83a5f6d245ac363ba94'
p1018
sI1017
S'ed9d28f8b48cbbc22905eb0e4939a971'
p1019
sI1018
S'b13f88228c65c83a5f6d245ac363ba94'
p1020
sI1019
S'b13f88228c65c83a5f6d245ac363ba94'
p1021
sI1020
S'b13f88228c65c83a5f6d245ac363ba94'
p1022
sI1021
S'b13f88228c65c83a5f6d245ac363ba94'
p1023
sI1022
S'81d84246a74d608f3ee63a106cbb043b'
p1024
sI1023
S'dcc318bcb4a4036655a0843b4fe7942e'
p1025
sI1024
S'c2ec79a92ef680fa66bf2e0f6b028d0b'
p1026
sI1025
S'c21bc840cbe8b66eaa21f5ee89014837'
p1027
sI1026
S'ed9d28f8b48cbbc22905eb0e4939a971'
p1028
sI1027
S'c21bc840cbe8b66eaa21f5ee89014837'
p1029
sI1028
S'c21bc840cbe8b66eaa21f5ee89014837'
p1030
sI1029
S'c21bc840cbe8b66eaa21f5ee89014837'
p1031
sI1030
S'c21bc840cbe8b66eaa21f5ee89014837'
p1032
sI1031
S'ed9d28f8b48cbbc22905eb0e4939a971'
p1033
sI1032
S'b13f88228c65c83a5f6d245ac363ba94'
p1034
sI1033
S'c2ec79a92ef680fa66bf2e0f6b028d0b'
p1035
sI1034
S'c21bc840cbe8b66eaa21f5ee89014837'
p1036
sI1035
S'c21bc840cbe8b66eaa21f5ee89014837'
p1037
sI1036
S'81d84246a74d608f3ee63a106cbb043b'
p1038
sI1037
S'b13f88228c65c83a5f6d245ac363ba94'
p1039
sI1038
S'b13f88228c65c83a5f6d245ac363ba94'
p1040
sI1039
S'c21bc840cbe8b66eaa21f5ee89014837'
p1041
sI1040
S'ed9d28f8b48cbbc22905eb0e4939a971'
p1042
sI1041
S'c2ec79a92ef680fa66bf2e0f6b028d0b'
p1043
sI1042
S'a679f7ede37b1a73af88c572c8bc2de8'
p1044
sI1043
S'255a34d27511e4428a9b98d4ecab828d'
p1045
sI1044
S'd3fabf6946d59b69ce52039159451465'
p1046
sI1045
S'ed9d28f8b48cbbc22905eb0e4939a971'
p1047
sI1046
S'b13f88228c65c83a5f6d245ac363ba94'
p1048
sI1047
S'd3fabf6946d59b69ce52039159451465'
p1049
sI1048
S'31e6507a6c9e3dd9b612d9ecf0dd19f2'
p1050
sI1049
S'c21bc840cbe8b66eaa21f5ee89014837'
p1051
sI1050
S'b13f88228c65c83a5f6d245ac363ba94'
p1052
sI1051
S'b13f88228c65c83a5f6d245ac363ba94'
p1053
sI1052
S'ed9d28f8b48cbbc22905eb0e4939a971'
p1054
sI1053
S'b13f88228c65c83a5f6d245ac363ba94'
p1055
sI1054
S'c21bc840cbe8b66eaa21f5ee89014837'
p1056
sI1055
S'c2ec79a92ef680fa66bf2e0f6b028d0b'
p1057
sI1056
S'c2d154a5187ea776fa043ba05e609683'
p1058
sI1057
S'c21bc840cbe8b66eaa21f5ee89014837'
p1059
sI1058
S'c21bc840cbe8b66eaa21f5ee89014837'
p1060
sI1059
S'c21bc840cbe8b66eaa21f5ee89014837'
p1061
sI1060
S'c21bc840cbe8b66eaa21f5ee89014837'
p1062
sI1061
S'ed9d28f8b48cbbc22905eb0e4939a971'
p1063
sI1062
S'c21bc840cbe8b66eaa21f5ee89014837'
p1064
sI1063
S'ed9d28f8b48cbbc22905eb0e4939a971'
p1065
sI1064
S'fd0de6977f28814aed2373bdad80f25f'
p1066
sI1065
S'961baca73e7bcaa813ddb82c911af5ae'
p1067
sI1066
S'c21bc840cbe8b66eaa21f5ee89014837'
p1068
sI1067
S'c21bc840cbe8b66eaa21f5ee89014837'
p1069
sI1068
S'dcc318bcb4a4036655a0843b4fe7942e'
p1070
sI1069
S'c21bc840cbe8b66eaa21f5ee89014837'
p1071
sI1070
S'b13f88228c65c83a5f6d245ac363ba94'
p1072
sI1071
S'c2ec79a92ef680fa66bf2e0f6b028d0b'
p1073
sI1072
S'6b7879b5036f18752ff29f13fa20e976'
p1074
sI1073
S'b13f88228c65c83a5f6d245ac363ba94'
p1075
sI1074
S'e3cdd573b784b958a109245064deaa1e'
p1076
sI1075
S'b13f88228c65c83a5f6d245ac363ba94'
p1077
sI1076
S'b13f88228c65c83a5f6d245ac363ba94'
p1078
sI1077
S'31e6507a6c9e3dd9b612d9ecf0dd19f2'
p1079
sI1078
S'31e6507a6c9e3dd9b612d9ecf0dd19f2'
p1080
sI1079
S'c2ec79a92ef680fa66bf2e0f6b028d0b'
p1081
sI1080
S'c2ec79a92ef680fa66bf2e0f6b028d0b'
p1082
sI1081
S'a679f7ede37b1a73af88c572c8bc2de8'
p1083
sI1082
S'a679f7ede37b1a73af88c572c8bc2de8'
p1084
sI1083
S'fd0de6977f28814aed2373bdad80f25f'
p1085
sI1084
S'ed9d28f8b48cbbc22905eb0e4939a971'
p1086
sI1085
S'31e6507a6c9e3dd9b612d9ecf0dd19f2'
p1087
sI1086
S'a679f7ede37b1a73af88c572c8bc2de8'
p1088
sI1087
S'ed9d28f8b48cbbc22905eb0e4939a971'
p1089
sI1088
S'c2ec79a92ef680fa66bf2e0f6b028d0b'
p1090
sI1089
S'ed9d28f8b48cbbc22905eb0e4939a971'
p1091
sI1090
S'c2ec79a92ef680fa66bf2e0f6b028d0b'
p1092
sI1091
S'ed9d28f8b48cbbc22905eb0e4939a971'
p1093
sI1092
S'c2ec79a92ef680fa66bf2e0f6b028d0b'
p1094
sI1093
S'81d84246a74d608f3ee63a106cbb043b'
p1095
sI1094
S'c21bc840cbe8b66eaa21f5ee89014837'
p1096
sI1095
S'c21bc840cbe8b66eaa21f5ee89014837'
p1097
sI1096
S'ffa96a13101c4baee282ee042ace2192'
p1098
sI1097
S'c2ec79a92ef680fa66bf2e0f6b028d0b'
p1099
sI1098
S'9319fcefef4c46f05ee84e13f48b1751'
p1100
sI1099
S'8fcb64811fd61f1c81c31cd3197f4b6c'
p1101
sI1100
S'd3fabf6946d59b69ce52039159451465'
p1102
sI1101
S'31e6507a6c9e3dd9b612d9ecf0dd19f2'
p1103
sI1102
S'b13f88228c65c83a5f6d245ac363ba94'
p1104
sI1103
S'b13f88228c65c83a5f6d245ac363ba94'
p1105
sI1104
S'ed9d28f8b48cbbc22905eb0e4939a971'
p1106
sI1105
S'c2ec79a92ef680fa66bf2e0f6b028d0b'
p1107
sI1106
S'a679f7ede37b1a73af88c572c8bc2de8'
p1108
sI1107
S'a679f7ede37b1a73af88c572c8bc2de8'
p1109
sI1108
S'ed9d28f8b48cbbc22905eb0e4939a971'
p1110
sI1109
S'ed9d28f8b48cbbc22905eb0e4939a971'
p1111
sI1110
S'd3fabf6946d59b69ce52039159451465'
p1112
sI1111
S'c21bc840cbe8b66eaa21f5ee89014837'
p1113
sI1112
S'd3fabf6946d59b69ce52039159451465'
p1114
sI1113
S'c21bc840cbe8b66eaa21f5ee89014837'
p1115
sI1114
S'ed9d28f8b48cbbc22905eb0e4939a971'
p1116
sI1115
S'ed9d28f8b48cbbc22905eb0e4939a971'
p1117
sI1116
S'b13f88228c65c83a5f6d245ac363ba94'
p1118
sI1117
S'd3fabf6946d59b69ce52039159451465'
p1119
sI1118
S'b13f88228c65c83a5f6d245ac363ba94'
p1120
sI1119
S'c2ec79a92ef680fa66bf2e0f6b028d0b'
p1121
sI1120
S'ed9d28f8b48cbbc22905eb0e4939a971'
p1122
sI1121
S'dcc318bcb4a4036655a0843b4fe7942e'
p1123
sI1122
S'b13f88228c65c83a5f6d245ac363ba94'
p1124
sI1123
S'8fcb64811fd61f1c81c31cd3197f4b6c'
p1125
sI1124
S'c2ec79a92ef680fa66bf2e0f6b028d0b'
p1126
sI1125
S'b26c7fc245ad94a020ba3c5116b77c84'
p1127
sI1126
S'81d84246a74d608f3ee63a106cbb043b'
p1128
sI1127
S'b13f88228c65c83a5f6d245ac363ba94'
p1129
sI1128
S'c2ec79a92ef680fa66bf2e0f6b028d0b'
p1130
sI1129
S'b13f88228c65c83a5f6d245ac363ba94'
p1131
sI1130
S'0bada0c8f61a201a18bf4075141375d2'
p1132
sI1131
S'81d84246a74d608f3ee63a106cbb043b'
p1133
sI1132
S'd3fabf6946d59b69ce52039159451465'
p1134
sI1133
S'81d84246a74d608f3ee63a106cbb043b'
p1135
sI1134
S'c21bc840cbe8b66eaa21f5ee89014837'
p1136
sI1135
S'81d84246a74d608f3ee63a106cbb043b'
p1137
sI1136
S'e3cdd573b784b958a109245064deaa1e'
p1138
sI1137
S'81d84246a74d608f3ee63a106cbb043b'
p1139
sI1138
S'81d84246a74d608f3ee63a106cbb043b'
p1140
sI1139
S'c21bc840cbe8b66eaa21f5ee89014837'
p1141
sI1140
S'c21bc840cbe8b66eaa21f5ee89014837'
p1142
sI1141
S'c21bc840cbe8b66eaa21f5ee89014837'
p1143
sI1142
S'c21bc840cbe8b66eaa21f5ee89014837'
p1144
sI1143
S'b13f88228c65c83a5f6d245ac363ba94'
p1145
sI1144
S'c2ec79a92ef680fa66bf2e0f6b028d0b'
p1146
sI1145
S'b13f88228c65c83a5f6d245ac363ba94'
p1147
sI1146
S'c21bc840cbe8b66eaa21f5ee89014837'
p1148
sI1147
S'ed9d28f8b48cbbc22905eb0e4939a971'
p1149
sI1148
S'd3fabf6946d59b69ce52039159451465'
p1150
sI1149
S'c21bc840cbe8b66eaa21f5ee89014837'
p1151
sI1150
S'ed9d28f8b48cbbc22905eb0e4939a971'
p1152
sI1151
S'c2ec79a92ef680fa66bf2e0f6b028d0b'
p1153
sI1152
S'2d62d55be4b8cee432ff50fcc58f7c0f'
p1154
sI1153
S'81d84246a74d608f3ee63a106cbb043b'
p1155
sI1154
S'e3cdd573b784b958a109245064deaa1e'
p1156
sI1155
S'b13f88228c65c83a5f6d245ac363ba94'
p1157
sI1156
S'c21bc840cbe8b66eaa21f5ee89014837'
p1158
sI1157
S'b13f88228c65c83a5f6d245ac363ba94'
p1159
sI1158
S'b13f88228c65c83a5f6d245ac363ba94'
p1160
sI1159
S'b13f88228c65c83a5f6d245ac363ba94'
p1161
sI1160
S'c2ec79a92ef680fa66bf2e0f6b028d0b'
p1162
sI1161
S'31e6507a6c9e3dd9b612d9ecf0dd19f2'
p1163
sI1162
S'e3cdd573b784b958a109245064deaa1e'
p1164
sI1163
S'b13f88228c65c83a5f6d245ac363ba94'
p1165
sI1164
S'c2ec79a92ef680fa66bf2e0f6b028d0b'
p1166
sI1165
S'c2ec79a92ef680fa66bf2e0f6b028d0b'
p1167
sI1166
S'dcc318bcb4a4036655a0843b4fe7942e'
p1168
sI1167
S'b13f88228c65c83a5f6d245ac363ba94'
p1169
sI1168
S'ed9d28f8b48cbbc22905eb0e4939a971'
p1170
sI1169
S'e3cdd573b784b958a109245064deaa1e'
p1171
sI1170
S'e3cdd573b784b958a109245064deaa1e'
p1172
sI1171
S'c2ec79a92ef680fa66bf2e0f6b028d0b'
p1173
sI1172
S'e3cdd573b784b958a109245064deaa1e'
p1174
sI1173
S'e3cdd573b784b958a109245064deaa1e'
p1175
sI1174
S'e3cdd573b784b958a109245064deaa1e'
p1176
sI1175
S'1a43f005360000663e3af1cd0813aabd'
p1177
sI1176
S'c2ec79a92ef680fa66bf2e0f6b028d0b'
p1178
sI1177
S'e3cdd573b784b958a109245064deaa1e'
p1179
sI1178
S'd3fabf6946d59b69ce52039159451465'
p1180
sI1179
S'b13f88228c65c83a5f6d245ac363ba94'
p1181
sI1180
S'b13f88228c65c83a5f6d245ac363ba94'
p1182
sI1181
S'8fcb64811fd61f1c81c31cd3197f4b6c'
p1183
sI1182
S'b13f88228c65c83a5f6d245ac363ba94'
p1184
sI1183
S'b13f88228c65c83a5f6d245ac363ba94'
p1185
sI1184
S'c2ec79a92ef680fa66bf2e0f6b028d0b'
p1186
sI1185
S'd3fabf6946d59b69ce52039159451465'
p1187
sI1186
S'ed9d28f8b48cbbc22905eb0e4939a971'
p1188
sI1187
S'c21bc840cbe8b66eaa21f5ee89014837'
p1189
sI1188
S'd3fabf6946d59b69ce52039159451465'
p1190
sI1189
S'ed9d28f8b48cbbc22905eb0e4939a971'
p1191
sI1190
S'81d84246a74d608f3ee63a106cbb043b'
p1192
sI1191
S'c2ec79a92ef680fa66bf2e0f6b028d0b'
p1193
sI1192
S'e3cdd573b784b958a109245064deaa1e'
p1194
sI1193
S'b13f88228c65c83a5f6d245ac363ba94'
p1195
sI1194
S'b13f88228c65c83a5f6d245ac363ba94'
p1196
sI1195
S'81d84246a74d608f3ee63a106cbb043b'
p1197
sI1196
S'c2ec79a92ef680fa66bf2e0f6b028d0b'
p1198
sI1197
S'b13f88228c65c83a5f6d245ac363ba94'
p1199
sI1198
S'81d84246a74d608f3ee63a106cbb043b'
p1200
sI1199
S'ed9d28f8b48cbbc22905eb0e4939a971'
p1201
sI1200
S'ed9d28f8b48cbbc22905eb0e4939a971'
p1202
sI1201
S'c21bc840cbe8b66eaa21f5ee89014837'
p1203
sI1202
S'c21bc840cbe8b66eaa21f5ee89014837'
p1204
sI1203
S'dcc318bcb4a4036655a0843b4fe7942e'
p1205
sI1204
S'c21bc840cbe8b66eaa21f5ee89014837'
p1206
sI1205
S'ed9d28f8b48cbbc22905eb0e4939a971'
p1207
sI1206
S'c21bc840cbe8b66eaa21f5ee89014837'
p1208
sI1207
S'b13f88228c65c83a5f6d245ac363ba94'
p1209
sI1208
S'c21bc840cbe8b66eaa21f5ee89014837'
p1210
sI1209
S'dd437ad97079318550a4fa2bd5b987fe'
p1211
sI1210
S'c2ec79a92ef680fa66bf2e0f6b028d0b'
p1212
sI1211
S'81d84246a74d608f3ee63a106cbb043b'
p1213
sI1212
S'961baca73e7bcaa813ddb82c911af5ae'
p1214
sI1213
S'81d84246a74d608f3ee63a106cbb043b'
p1215
sI1214
S'c2ec79a92ef680fa66bf2e0f6b028d0b'
p1216
sI1215
S'b13f88228c65c83a5f6d245ac363ba94'
p1217
sI1216
S'b13f88228c65c83a5f6d245ac363ba94'
p1218
sI1217
S'961baca73e7bcaa813ddb82c911af5ae'
p1219
sI1218
S'dcc318bcb4a4036655a0843b4fe7942e'
p1220
sI1219
S'dcc318bcb4a4036655a0843b4fe7942e'
p1221
sI1220
S'dd437ad97079318550a4fa2bd5b987fe'
p1222
sI1221
S'b13f88228c65c83a5f6d245ac363ba94'
p1223
sI1222
S'c2ec79a92ef680fa66bf2e0f6b028d0b'
p1224
sI1223
S'fd0de6977f28814aed2373bdad80f25f'
p1225
sI1224
S'dcc318bcb4a4036655a0843b4fe7942e'
p1226
sI1225
S'dbf3cb02269e7d4aaecce7fdd6c2bd8e'
p1227
sI1226
S'dbf3cb02269e7d4aaecce7fdd6c2bd8e'
p1228
sI1227
S'ed9d28f8b48cbbc22905eb0e4939a971'
p1229
sI1228
S'c21bc840cbe8b66eaa21f5ee89014837'
p1230
sI1229
S'b13f88228c65c83a5f6d245ac363ba94'
p1231
sI1230
S'dbf3cb02269e7d4aaecce7fdd6c2bd8e'
p1232
sI1231
S'c2ec79a92ef680fa66bf2e0f6b028d0b'
p1233
sI1232
S'dbf3cb02269e7d4aaecce7fdd6c2bd8e'
p1234
sI1233
S'81d84246a74d608f3ee63a106cbb043b'
p1235
sI1234
S'ed9d28f8b48cbbc22905eb0e4939a971'
p1236
sI1235
S'c2ec79a92ef680fa66bf2e0f6b028d0b'
p1237
sI1236
S'fd0de6977f28814aed2373bdad80f25f'
p1238
sI1237
S'c2ec79a92ef680fa66bf2e0f6b028d0b'
p1239
sI1238
S'b13f88228c65c83a5f6d245ac363ba94'
p1240
sI1239
S'dd437ad97079318550a4fa2bd5b987fe'
p1241
sI1240
S'ed9d28f8b48cbbc22905eb0e4939a971'
p1242
sI1241
S'ed9d28f8b48cbbc22905eb0e4939a971'
p1243
sI1242
S'b13f88228c65c83a5f6d245ac363ba94'
p1244
sI1243
S'c2ec79a92ef680fa66bf2e0f6b028d0b'
p1245
sI1244
S'c21bc840cbe8b66eaa21f5ee89014837'
p1246
sI1245
S'dbf3cb02269e7d4aaecce7fdd6c2bd8e'
p1247
sI1246
S'b13f88228c65c83a5f6d245ac363ba94'
p1248
sI1247
S'b13f88228c65c83a5f6d245ac363ba94'
p1249
sI1248
S'f837e9b8713d91c624b63b740df2c528'
p1250
sI1249
S'b13f88228c65c83a5f6d245ac363ba94'
p1251
sI1250
S'c2ec79a92ef680fa66bf2e0f6b028d0b'
p1252
sI1251
S'e3cdd573b784b958a109245064deaa1e'
p1253
sI1252
S'c2ec79a92ef680fa66bf2e0f6b028d0b'
p1254
sI1253
S'a5699f2b94f800b4b7d07dfc1c584edc'
p1255
sI1254
S'c21bc840cbe8b66eaa21f5ee89014837'
p1256
sI1255
S'b13f88228c65c83a5f6d245ac363ba94'
p1257
sI1256
S'e3cdd573b784b958a109245064deaa1e'
p1258
sI1257
S'a5699f2b94f800b4b7d07dfc1c584edc'
p1259
sI1258
S'c21bc840cbe8b66eaa21f5ee89014837'
p1260
sI1259
S'81d84246a74d608f3ee63a106cbb043b'
p1261
sI1260
S'd3fabf6946d59b69ce52039159451465'
p1262
sI1261
S'b13f88228c65c83a5f6d245ac363ba94'
p1263
sI1262
S'b13f88228c65c83a5f6d245ac363ba94'
p1264
sI1263
S'b13f88228c65c83a5f6d245ac363ba94'
p1265
sI1264
S'dcc318bcb4a4036655a0843b4fe7942e'
p1266
sI1265
S'ed9d28f8b48cbbc22905eb0e4939a971'
p1267
sI1266
S'091e3da83de5db9520beda22548139a1'
p1268
sI1267
S'a5699f2b94f800b4b7d07dfc1c584edc'
p1269
sI1268
S'81d84246a74d608f3ee63a106cbb043b'
p1270
sI1269
S'b13f88228c65c83a5f6d245ac363ba94'
p1271
sI1270
S'a5699f2b94f800b4b7d07dfc1c584edc'
p1272
sI1271
S'0bada0c8f61a201a18bf4075141375d2'
p1273
sI1272
S'c21bc840cbe8b66eaa21f5ee89014837'
p1274
sI1273
S'81d84246a74d608f3ee63a106cbb043b'
p1275
sI1274
S'c21bc840cbe8b66eaa21f5ee89014837'
p1276
sI1275
S'0bada0c8f61a201a18bf4075141375d2'
p1277
sI1276
S'0bada0c8f61a201a18bf4075141375d2'
p1278
sI1277
S'c21bc840cbe8b66eaa21f5ee89014837'
p1279
sI1278
S'c2ec79a92ef680fa66bf2e0f6b028d0b'
p1280
sI1279
S'c21bc840cbe8b66eaa21f5ee89014837'
p1281
sI1280
S'c2ec79a92ef680fa66bf2e0f6b028d0b'
p1282
sI1281
S'c21bc840cbe8b66eaa21f5ee89014837'
p1283
sI1282
S'c21bc840cbe8b66eaa21f5ee89014837'
p1284
sI1283
S'b13f88228c65c83a5f6d245ac363ba94'
p1285
sI1284
S'ed9d28f8b48cbbc22905eb0e4939a971'
p1286
sI1285
S'b13f88228c65c83a5f6d245ac363ba94'
p1287
sI1286
S'b13f88228c65c83a5f6d245ac363ba94'
p1288
sI1287
S'c21bc840cbe8b66eaa21f5ee89014837'
p1289
sI1288
S'ed9d28f8b48cbbc22905eb0e4939a971'
p1290
sI1289
S'c21bc840cbe8b66eaa21f5ee89014837'
p1291
sI1290
S'0bada0c8f61a201a18bf4075141375d2'
p1292
sI1291
S'c21bc840cbe8b66eaa21f5ee89014837'
p1293
sI1292
S'c21bc840cbe8b66eaa21f5ee89014837'
p1294
sI1293
S'd3fabf6946d59b69ce52039159451465'
p1295
sI1294
S'd3fabf6946d59b69ce52039159451465'
p1296
sI1295
S'dbf3cb02269e7d4aaecce7fdd6c2bd8e'
p1297
sI1296
S'c21bc840cbe8b66eaa21f5ee89014837'
p1298
sI1297
S'961baca73e7bcaa813ddb82c911af5ae'
p1299
sI1298
S'd3fabf6946d59b69ce52039159451465'
p1300
sI1299
S'd3fabf6946d59b69ce52039159451465'
p1301
sI1300
S'c21bc840cbe8b66eaa21f5ee89014837'
p1302
sI1301
S'c21bc840cbe8b66eaa21f5ee89014837'
p1303
sI1302
S'c21bc840cbe8b66eaa21f5ee89014837'
p1304
sI1303
S'c21bc840cbe8b66eaa21f5ee89014837'
p1305
sI1304
S'dbf3cb02269e7d4aaecce7fdd6c2bd8e'
p1306
sI1305
S'ffa96a13101c4baee282ee042ace2192'
p1307
sI1306
S'81d84246a74d608f3ee63a106cbb043b'
p1308
sI1307
S'c21bc840cbe8b66eaa21f5ee89014837'
p1309
sI1308
S'ed9d28f8b48cbbc22905eb0e4939a971'
p1310
sI1309
S'ed9d28f8b48cbbc22905eb0e4939a971'
p1311
sI1310
S'e3cdd573b784b958a109245064deaa1e'
p1312
sI1311
S'a5699f2b94f800b4b7d07dfc1c584edc'
p1313
sI1312
S'c2ec79a92ef680fa66bf2e0f6b028d0b'
p1314
sI1313
S'e3cdd573b784b958a109245064deaa1e'
p1315
sI1314
S'b13f88228c65c83a5f6d245ac363ba94'
p1316
sI1315
S'c2ec79a92ef680fa66bf2e0f6b028d0b'
p1317
sI1316
S'dbf3cb02269e7d4aaecce7fdd6c2bd8e'
p1318
sI1317
S'e3cdd573b784b958a109245064deaa1e'
p1319
sI1318
S'c21bc840cbe8b66eaa21f5ee89014837'
p1320
sI1319
S'c2d154a5187ea776fa043ba05e609683'
p1321
sI1320
S'e3cdd573b784b958a109245064deaa1e'
p1322
sI1321
S'c21bc840cbe8b66eaa21f5ee89014837'
p1323
sI1322
S'c21bc840cbe8b66eaa21f5ee89014837'
p1324
sI1323
S'c2ec79a92ef680fa66bf2e0f6b028d0b'
p1325
sI1324
S'c21bc840cbe8b66eaa21f5ee89014837'
p1326
sI1325
S'e3cdd573b784b958a109245064deaa1e'
p1327
sI1326
S'dbf3cb02269e7d4aaecce7fdd6c2bd8e'
p1328
sI1327
S'c2ec79a92ef680fa66bf2e0f6b028d0b'
p1329
sI1328
S'0bada0c8f61a201a18bf4075141375d2'
p1330
sI1329
S'ed9d28f8b48cbbc22905eb0e4939a971'
p1331
sI1330
S'c21bc840cbe8b66eaa21f5ee89014837'
p1332
sI1331
S'c21bc840cbe8b66eaa21f5ee89014837'
p1333
sI1332
S'c21bc840cbe8b66eaa21f5ee89014837'
p1334
sI1333
S'0bada0c8f61a201a18bf4075141375d2'
p1335
sI1334
S'81d84246a74d608f3ee63a106cbb043b'
p1336
sI1335
S'c21bc840cbe8b66eaa21f5ee89014837'
p1337
sI1336
S'fd0de6977f28814aed2373bdad80f25f'
p1338
sI1337
S'81d84246a74d608f3ee63a106cbb043b'
p1339
sI1338
S'81d84246a74d608f3ee63a106cbb043b'
p1340
sI1339
S'ed9d28f8b48cbbc22905eb0e4939a971'
p1341
sI1340
S'b13f88228c65c83a5f6d245ac363ba94'
p1342
sI1341
S'8fcb64811fd61f1c81c31cd3197f4b6c'
p1343
sI1342
S'e3cdd573b784b958a109245064deaa1e'
p1344
sI1343
S'b13f88228c65c83a5f6d245ac363ba94'
p1345
sI1344
S'ed9d28f8b48cbbc22905eb0e4939a971'
p1346
sI1345
S'b13f88228c65c83a5f6d245ac363ba94'
p1347
sI1346
S'81d84246a74d608f3ee63a106cbb043b'
p1348
sI1347
S'dd437ad97079318550a4fa2bd5b987fe'
p1349
sI1348
S'c2ec79a92ef680fa66bf2e0f6b028d0b'
p1350
sI1349
S'dd437ad97079318550a4fa2bd5b987fe'
p1351
sI1350
S'81d84246a74d608f3ee63a106cbb043b'
p1352
sI1351
S'ed9d28f8b48cbbc22905eb0e4939a971'
p1353
sI1352
S'c2ec79a92ef680fa66bf2e0f6b028d0b'
p1354
sI1353
S'ed9d28f8b48cbbc22905eb0e4939a971'
p1355
sI1354
S'c2ec79a92ef680fa66bf2e0f6b028d0b'
p1356
sI1355
S'0bada0c8f61a201a18bf4075141375d2'
p1357
sI1356
S'dbf3cb02269e7d4aaecce7fdd6c2bd8e'
p1358
sI1357
S'dd437ad97079318550a4fa2bd5b987fe'
p1359
sI1358
S'ed9d28f8b48cbbc22905eb0e4939a971'
p1360
sI1359
S'0bada0c8f61a201a18bf4075141375d2'
p1361
sI1360
S'a5699f2b94f800b4b7d07dfc1c584edc'
p1362
sI1361
S'0bada0c8f61a201a18bf4075141375d2'
p1363
sI1362
S'd3fabf6946d59b69ce52039159451465'
p1364
sI1363
S'dbf3cb02269e7d4aaecce7fdd6c2bd8e'
p1365
sI1364
S'c21bc840cbe8b66eaa21f5ee89014837'
p1366
sI1365
S'b13f88228c65c83a5f6d245ac363ba94'
p1367
sI1366
S'81d84246a74d608f3ee63a106cbb043b'
p1368
sI1367
S'dbf3cb02269e7d4aaecce7fdd6c2bd8e'
p1369
sI1368
S'8fcb64811fd61f1c81c31cd3197f4b6c'
p1370
sI1369
S'c2ec79a92ef680fa66bf2e0f6b028d0b'
p1371
sI1370
S'ed9d28f8b48cbbc22905eb0e4939a971'
p1372
sI1371
S'c2ec79a92ef680fa66bf2e0f6b028d0b'
p1373
sI1372
S'e3cdd573b784b958a109245064deaa1e'
p1374
sI1373
S'c2ec79a92ef680fa66bf2e0f6b028d0b'
p1375
sI1374
S'b13f88228c65c83a5f6d245ac363ba94'
p1376
sI1375
S'dbf3cb02269e7d4aaecce7fdd6c2bd8e'
p1377
sI1376
S'0bada0c8f61a201a18bf4075141375d2'
p1378
sI1377
S'dbf3cb02269e7d4aaecce7fdd6c2bd8e'
p1379
sI1378
S'c2ec79a92ef680fa66bf2e0f6b028d0b'
p1380
sI1379
S'dbf3cb02269e7d4aaecce7fdd6c2bd8e'
p1381
sI1380
S'e3cdd573b784b958a109245064deaa1e'
p1382
sI1381
S'd3fabf6946d59b69ce52039159451465'
p1383
sI1382
S'b13f88228c65c83a5f6d245ac363ba94'
p1384
sI1383
S'ed9d28f8b48cbbc22905eb0e4939a971'
p1385
sI1384
S'ed9d28f8b48cbbc22905eb0e4939a971'
p1386
sI1385
S'b13f88228c65c83a5f6d245ac363ba94'
p1387
sI1386
S'b13f88228c65c83a5f6d245ac363ba94'
p1388
sI1387
S'fd0de6977f28814aed2373bdad80f25f'
p1389
sI1388
S'81d84246a74d608f3ee63a106cbb043b'
p1390
sI1389
S'0bada0c8f61a201a18bf4075141375d2'
p1391
sI1390
S'dbf3cb02269e7d4aaecce7fdd6c2bd8e'
p1392
sI1391
S'dcc318bcb4a4036655a0843b4fe7942e'
p1393
sI1392
S'dbf3cb02269e7d4aaecce7fdd6c2bd8e'
p1394
sI1393
S'0bada0c8f61a201a18bf4075141375d2'
p1395
sI1394
S'c21bc840cbe8b66eaa21f5ee89014837'
p1396
sI1395
S'c2ec79a92ef680fa66bf2e0f6b028d0b'
p1397
sI1396
S'81d84246a74d608f3ee63a106cbb043b'
p1398
sI1397
S'a5699f2b94f800b4b7d07dfc1c584edc'
p1399
sI1398
S'c21bc840cbe8b66eaa21f5ee89014837'
p1400
sI1399
S'0bada0c8f61a201a18bf4075141375d2'
p1401
sI1400
S'ed9d28f8b48cbbc22905eb0e4939a971'
p1402
sI1401
S'c21bc840cbe8b66eaa21f5ee89014837'
p1403
sI1402
S'c2ec79a92ef680fa66bf2e0f6b028d0b'
p1404
sI1403
S'dbf3cb02269e7d4aaecce7fdd6c2bd8e'
p1405
sI1404
S'c21bc840cbe8b66eaa21f5ee89014837'
p1406
sI1405
S'81d84246a74d608f3ee63a106cbb043b'
p1407
sI1406
S'dbf3cb02269e7d4aaecce7fdd6c2bd8e'
p1408
sI1407
S'c2ec79a92ef680fa66bf2e0f6b028d0b'
p1409
sI1408
S'b13f88228c65c83a5f6d245ac363ba94'
p1410
sI1409
S'c2ec79a92ef680fa66bf2e0f6b028d0b'
p1411
sI1410
S'961baca73e7bcaa813ddb82c911af5ae'
p1412
sI1411
S'dbf3cb02269e7d4aaecce7fdd6c2bd8e'
p1413
sI1412
S'b13f88228c65c83a5f6d245ac363ba94'
p1414
sI1413
S'fd0de6977f28814aed2373bdad80f25f'
p1415
sI1414
S'dcc318bcb4a4036655a0843b4fe7942e'
p1416
sI1415
S'b13f88228c65c83a5f6d245ac363ba94'
p1417
sI1416
S'ed9d28f8b48cbbc22905eb0e4939a971'
p1418
sI1417
S'c21bc840cbe8b66eaa21f5ee89014837'
p1419
sI1418
S'c21bc840cbe8b66eaa21f5ee89014837'
p1420
sI1419
S'b13f88228c65c83a5f6d245ac363ba94'
p1421
sI1420
S'b13f88228c65c83a5f6d245ac363ba94'
p1422
sI1421
S'a5699f2b94f800b4b7d07dfc1c584edc'
p1423
sI1422
S'b13f88228c65c83a5f6d245ac363ba94'
p1424
sI1423
S'c2ec79a92ef680fa66bf2e0f6b028d0b'
p1425
sI1424
S'a5699f2b94f800b4b7d07dfc1c584edc'
p1426
sI1425
S'c2ec79a92ef680fa66bf2e0f6b028d0b'
p1427
sI1426
S'b13f88228c65c83a5f6d245ac363ba94'
p1428
sI1427
S'c2ec79a92ef680fa66bf2e0f6b028d0b'
p1429
sI1428
S'b13f88228c65c83a5f6d245ac363ba94'
p1430
sI1429
S'b13f88228c65c83a5f6d245ac363ba94'
p1431
sI1430
S'd3fabf6946d59b69ce52039159451465'
p1432
sI1431
S'fd0de6977f28814aed2373bdad80f25f'
p1433
sI1432
S'fd0de6977f28814aed2373bdad80f25f'
p1434
sI1433
S'0bada0c8f61a201a18bf4075141375d2'
p1435
sI1434
S'a5699f2b94f800b4b7d07dfc1c584edc'
p1436
sI1435
S'b13f88228c65c83a5f6d245ac363ba94'
p1437
sI1436
S'fd0de6977f28814aed2373bdad80f25f'
p1438
sI1437
S'c21bc840cbe8b66eaa21f5ee89014837'
p1439
sI1438
S'0bada0c8f61a201a18bf4075141375d2'
p1440
sI1439
S'c2ec79a92ef680fa66bf2e0f6b028d0b'
p1441
sI1440
S'ed9d28f8b48cbbc22905eb0e4939a971'
p1442
sI1441
S'dd437ad97079318550a4fa2bd5b987fe'
p1443
sI1442
S'e9a166e354f57ce68da7aa5baed2875d'
p1444
sI1443
S'c2ec79a92ef680fa66bf2e0f6b028d0b'
p1445
sI1444
S'c21bc840cbe8b66eaa21f5ee89014837'
p1446
sI1445
S'fd0de6977f28814aed2373bdad80f25f'
p1447
sI1446
S'fd0de6977f28814aed2373bdad80f25f'
p1448
sI1447
S'dbf3cb02269e7d4aaecce7fdd6c2bd8e'
p1449
sI1448
S'b26c7fc245ad94a020ba3c5116b77c84'
p1450
sI1449
S'b13f88228c65c83a5f6d245ac363ba94'
p1451
sI1450
S'b13f88228c65c83a5f6d245ac363ba94'
p1452
sI1451
S'b13f88228c65c83a5f6d245ac363ba94'
p1453
sI1452
S'b13f88228c65c83a5f6d245ac363ba94'
p1454
sI1453
S'fd0de6977f28814aed2373bdad80f25f'
p1455
sI1454
S'e9a166e354f57ce68da7aa5baed2875d'
p1456
sI1455
S'b13f88228c65c83a5f6d245ac363ba94'
p1457
sI1456
S'd3fabf6946d59b69ce52039159451465'
p1458
sI1457
S'ed9d28f8b48cbbc22905eb0e4939a971'
p1459
sI1458
S'0bada0c8f61a201a18bf4075141375d2'
p1460
sI1459
S'b13f88228c65c83a5f6d245ac363ba94'
p1461
sI1460
S'0bada0c8f61a201a18bf4075141375d2'
p1462
sI1461
S'0bada0c8f61a201a18bf4075141375d2'
p1463
sI1462
S'ed9d28f8b48cbbc22905eb0e4939a971'
p1464
sI1463
S'b26c7fc245ad94a020ba3c5116b77c84'
p1465
sI1464
S'b13f88228c65c83a5f6d245ac363ba94'
p1466
sI1465
S'fd0de6977f28814aed2373bdad80f25f'
p1467
sI1466
S'dcc318bcb4a4036655a0843b4fe7942e'
p1468
sI1467
S'b13f88228c65c83a5f6d245ac363ba94'
p1469
sI1468
S'0bada0c8f61a201a18bf4075141375d2'
p1470
sI1469
S'b13f88228c65c83a5f6d245ac363ba94'
p1471
sI1470
S'81d84246a74d608f3ee63a106cbb043b'
p1472
sI1471
S'b13f88228c65c83a5f6d245ac363ba94'
p1473
sI1472
S'd3fabf6946d59b69ce52039159451465'
p1474
sI1473
S'c2ec79a92ef680fa66bf2e0f6b028d0b'
p1475
sI1474
S'd3fabf6946d59b69ce52039159451465'
p1476
sI1475
S'ed9d28f8b48cbbc22905eb0e4939a971'
p1477
sI1476
S'8fcb64811fd61f1c81c31cd3197f4b6c'
p1478
sI1477
S'0bada0c8f61a201a18bf4075141375d2'
p1479
sI1478
S'b2497d6fdbbb6d1d7fe204b0fd06cff7'
p1480
sI1479
S'b26c7fc245ad94a020ba3c5116b77c84'
p1481
sI1480
S'961baca73e7bcaa813ddb82c911af5ae'
p1482
sI1481
S'ed9d28f8b48cbbc22905eb0e4939a971'
p1483
sI1482
S'c21bc840cbe8b66eaa21f5ee89014837'
p1484
sI1483
S'ed9d28f8b48cbbc22905eb0e4939a971'
p1485
sI1484
S'd3fabf6946d59b69ce52039159451465'
p1486
sI1485
S'dbf3cb02269e7d4aaecce7fdd6c2bd8e'
p1487
sI1486
S'c2ec79a92ef680fa66bf2e0f6b028d0b'
p1488
sI1487
S'd3fabf6946d59b69ce52039159451465'
p1489
sI1488
S'b13f88228c65c83a5f6d245ac363ba94'
p1490
sI1489
S'ed9d28f8b48cbbc22905eb0e4939a971'
p1491
sI1490
S'ed9d28f8b48cbbc22905eb0e4939a971'
p1492
sI1491
S'd3fabf6946d59b69ce52039159451465'
p1493
sI1492
S'c2ec79a92ef680fa66bf2e0f6b028d0b'
p1494
sI1493
S'e3cdd573b784b958a109245064deaa1e'
p1495
sI1494
S'65fb2f3d116f165cb28bc06b9193698d'
p1496
sI1495
S'e9a166e354f57ce68da7aa5baed2875d'
p1497
sI1496
S'8fcb64811fd61f1c81c31cd3197f4b6c'
p1498
sI1497
S'c21bc840cbe8b66eaa21f5ee89014837'
p1499
sI1498
S'c2ec79a92ef680fa66bf2e0f6b028d0b'
p1500
sI1499
S'c2ec79a92ef680fa66bf2e0f6b028d0b'
p1501
sI1500
S'dbf3cb02269e7d4aaecce7fdd6c2bd8e'
p1502
sI1501
S'b13f88228c65c83a5f6d245ac363ba94'
p1503
sI1502
S'c2ec79a92ef680fa66bf2e0f6b028d0b'
p1504
sI1503
S'fd0de6977f28814aed2373bdad80f25f'
p1505
sI1504
S'c21bc840cbe8b66eaa21f5ee89014837'
p1506
sI1505
S'c21bc840cbe8b66eaa21f5ee89014837'
p1507
sI1506
S'dbf3cb02269e7d4aaecce7fdd6c2bd8e'
p1508
sI1507
S'b13f88228c65c83a5f6d245ac363ba94'
p1509
sI1508
S'b13f88228c65c83a5f6d245ac363ba94'
p1510
sI1509
S'b13f88228c65c83a5f6d245ac363ba94'
p1511
sI1510
S'c2ec79a92ef680fa66bf2e0f6b028d0b'
p1512
sI1511
S'b13f88228c65c83a5f6d245ac363ba94'
p1513
sI1512
S'e3cdd573b784b958a109245064deaa1e'
p1514
sI1513
S'd3fabf6946d59b69ce52039159451465'
p1515
sI1514
S'b13f88228c65c83a5f6d245ac363ba94'
p1516
sI1515
S'b13f88228c65c83a5f6d245ac363ba94'
p1517
sI1516
S'961baca73e7bcaa813ddb82c911af5ae'
p1518
sI1517
S'c2ec79a92ef680fa66bf2e0f6b028d0b'
p1519
sI1518
S'81d84246a74d608f3ee63a106cbb043b'
p1520
sI1519
S'8fcb64811fd61f1c81c31cd3197f4b6c'
p1521
sI1520
S'dbf3cb02269e7d4aaecce7fdd6c2bd8e'
p1522
sI1521
S'b13f88228c65c83a5f6d245ac363ba94'
p1523
sI1522
S'a663d319369b4440d88c632d121fee83'
p1524
sI1523
S'ed9d28f8b48cbbc22905eb0e4939a971'
p1525
sI1524
S'ed9d28f8b48cbbc22905eb0e4939a971'
p1526
sI1525
S'c2ec79a92ef680fa66bf2e0f6b028d0b'
p1527
sI1526
S'dcc318bcb4a4036655a0843b4fe7942e'
p1528
sI1527
S'ed9d28f8b48cbbc22905eb0e4939a971'
p1529
sI1528
S'dd437ad97079318550a4fa2bd5b987fe'
p1530
sI1529
S'a679f7ede37b1a73af88c572c8bc2de8'
p1531
sI1530
S'c2ec79a92ef680fa66bf2e0f6b028d0b'
p1532
sI1531
S'a679f7ede37b1a73af88c572c8bc2de8'
p1533
sI1532
S'c2ec79a92ef680fa66bf2e0f6b028d0b'
p1534
sI1533
S'81d84246a74d608f3ee63a106cbb043b'
p1535
sI1534
S'd3fabf6946d59b69ce52039159451465'
p1536
sI1535
S'c2ec79a92ef680fa66bf2e0f6b028d0b'
p1537
sI1536
S'dbf3cb02269e7d4aaecce7fdd6c2bd8e'
p1538
sI1537
S'0bada0c8f61a201a18bf4075141375d2'
p1539
sI1538
S'fd0de6977f28814aed2373bdad80f25f'
p1540
sI1539
S'c2ec79a92ef680fa66bf2e0f6b028d0b'
p1541
sI1540
S'dbf3cb02269e7d4aaecce7fdd6c2bd8e'
p1542
sI1541
S'9319fcefef4c46f05ee84e13f48b1751'
p1543
sI1542
S'c21bc840cbe8b66eaa21f5ee89014837'
p1544
sI1543
S'ed9d28f8b48cbbc22905eb0e4939a971'
p1545
sI1544
S'c2ec79a92ef680fa66bf2e0f6b028d0b'
p1546
sI1545
S'ed9d28f8b48cbbc22905eb0e4939a971'
p1547
sI1546
S'b26c7fc245ad94a020ba3c5116b77c84'
p1548
sI1547
S'b13f88228c65c83a5f6d245ac363ba94'
p1549
sI1548
S'b13f88228c65c83a5f6d245ac363ba94'
p1550
sI1549
S'2d62d55be4b8cee432ff50fcc58f7c0f'
p1551
sI1550
S'dbf3cb02269e7d4aaecce7fdd6c2bd8e'
p1552
sI1551
S'b13f88228c65c83a5f6d245ac363ba94'
p1553
sI1552
S'a5699f2b94f800b4b7d07dfc1c584edc'
p1554
sI1553
S'ed9d28f8b48cbbc22905eb0e4939a971'
p1555
sI1554
S'ed9d28f8b48cbbc22905eb0e4939a971'
p1556
sI1555
S'c21bc840cbe8b66eaa21f5ee89014837'
p1557
sI1556
S'b13f88228c65c83a5f6d245ac363ba94'
p1558
sI1557
S'c2ec79a92ef680fa66bf2e0f6b028d0b'
p1559
sI1558
S'c2ec79a92ef680fa66bf2e0f6b028d0b'
p1560
sI1559
S'b13f88228c65c83a5f6d245ac363ba94'
p1561
sI1560
S'c21bc840cbe8b66eaa21f5ee89014837'
p1562
sI1561
S'b26c7fc245ad94a020ba3c5116b77c84'
p1563
sI1562
S'dbf3cb02269e7d4aaecce7fdd6c2bd8e'
p1564
sI1563
S'c21bc840cbe8b66eaa21f5ee89014837'
p1565
sI1564
S'c2ec79a92ef680fa66bf2e0f6b028d0b'
p1566
sI1565
S'e3cdd573b784b958a109245064deaa1e'
p1567
sI1566
S'a663d319369b4440d88c632d121fee83'
p1568
sI1567
S'b13f88228c65c83a5f6d245ac363ba94'
p1569
sI1568
S'b26c7fc245ad94a020ba3c5116b77c84'
p1570
sI1569
S'a663d319369b4440d88c632d121fee83'
p1571
sI1570
S'a663d319369b4440d88c632d121fee83'
p1572
sI1571
S'81d84246a74d608f3ee63a106cbb043b'
p1573
sI1572
S'81d84246a74d608f3ee63a106cbb043b'
p1574
sI1573
S'dbf3cb02269e7d4aaecce7fdd6c2bd8e'
p1575
sI1574
S'a5699f2b94f800b4b7d07dfc1c584edc'
p1576
sI1575
S'b13f88228c65c83a5f6d245ac363ba94'
p1577
sI1576
S'b13f88228c65c83a5f6d245ac363ba94'
p1578
sI1577
S'a5699f2b94f800b4b7d07dfc1c584edc'
p1579
sI1578
S'a5699f2b94f800b4b7d07dfc1c584edc'
p1580
sI1579
S'b13f88228c65c83a5f6d245ac363ba94'
p1581
sI1580
S'a5699f2b94f800b4b7d07dfc1c584edc'
p1582
sI1581
S'a663d319369b4440d88c632d121fee83'
p1583
sI1582
S'fd0de6977f28814aed2373bdad80f25f'
p1584
sI1583
S'81d84246a74d608f3ee63a106cbb043b'
p1585
sI1584
S'961baca73e7bcaa813ddb82c911af5ae'
p1586
sI1585
S'b13f88228c65c83a5f6d245ac363ba94'
p1587
sI1586
S'fd0de6977f28814aed2373bdad80f25f'
p1588
sI1587
S'e9a166e354f57ce68da7aa5baed2875d'
p1589
sI1588
S'b13f88228c65c83a5f6d245ac363ba94'
p1590
sI1589
S'b13f88228c65c83a5f6d245ac363ba94'
p1591
sI1590
S'b26c7fc245ad94a020ba3c5116b77c84'
p1592
sI1591
S'81d84246a74d608f3ee63a106cbb043b'
p1593
sI1592
S'81d84246a74d608f3ee63a106cbb043b'
p1594
sI1593
S'a679f7ede37b1a73af88c572c8bc2de8'
p1595
sI1594
S'b13f88228c65c83a5f6d245ac363ba94'
p1596
sI1595
S'81d84246a74d608f3ee63a106cbb043b'
p1597
sI1596
S'd3fabf6946d59b69ce52039159451465'
p1598
sI1597
S'de7e55fd9dd7958af66476b841e9083c'
p1599
sI1598
S'ed9d28f8b48cbbc22905eb0e4939a971'
p1600
sI1599
S'a5699f2b94f800b4b7d07dfc1c584edc'
p1601
sI1600
S'd3fabf6946d59b69ce52039159451465'
p1602
sI1601
S'ed9d28f8b48cbbc22905eb0e4939a971'
p1603
sI1602
S'b13f88228c65c83a5f6d245ac363ba94'
p1604
sI1603
S'dd437ad97079318550a4fa2bd5b987fe'
p1605
sI1604
S'9319fcefef4c46f05ee84e13f48b1751'
p1606
sI1605
S'dd437ad97079318550a4fa2bd5b987fe'
p1607
sI1606
S'33854509cd2f5c3e112ae3ab148bc35c'
p1608
sI1607
S'c2ec79a92ef680fa66bf2e0f6b028d0b'
p1609
sI1608
S'dd437ad97079318550a4fa2bd5b987fe'
p1610
sI1609
S'dd437ad97079318550a4fa2bd5b987fe'
p1611
sI1610
S'b13f88228c65c83a5f6d245ac363ba94'
p1612
sI1611
S'ed9d28f8b48cbbc22905eb0e4939a971'
p1613
sI1612
S'a679f7ede37b1a73af88c572c8bc2de8'
p1614
sI1613
S'b26c7fc245ad94a020ba3c5116b77c84'
p1615
sI1614
S'a679f7ede37b1a73af88c572c8bc2de8'
p1616
sI1615
S'81d84246a74d608f3ee63a106cbb043b'
p1617
sI1616
S'81d84246a74d608f3ee63a106cbb043b'
p1618
sI1617
S'b13f88228c65c83a5f6d245ac363ba94'
p1619
sI1618
S'81d84246a74d608f3ee63a106cbb043b'
p1620
sI1619
S'ed9d28f8b48cbbc22905eb0e4939a971'
p1621
sI1620
S'c2ec79a92ef680fa66bf2e0f6b028d0b'
p1622
sI1621
S'81d84246a74d608f3ee63a106cbb043b'
p1623
sI1622
S'5e51d4e322ad30dc81af9af8e94dda12'
p1624
sI1623
S'b13f88228c65c83a5f6d245ac363ba94'
p1625
sI1624
S'a663d319369b4440d88c632d121fee83'
p1626
sI1625
S'81d84246a74d608f3ee63a106cbb043b'
p1627
sI1626
S'ed9d28f8b48cbbc22905eb0e4939a971'
p1628
sI1627
S'dbf3cb02269e7d4aaecce7fdd6c2bd8e'
p1629
sI1628
S'dbf3cb02269e7d4aaecce7fdd6c2bd8e'
p1630
sI1629
S'b13f88228c65c83a5f6d245ac363ba94'
p1631
sI1630
S'dbf3cb02269e7d4aaecce7fdd6c2bd8e'
p1632
sI1631
S'dd437ad97079318550a4fa2bd5b987fe'
p1633
sI1632
S'9319fcefef4c46f05ee84e13f48b1751'
p1634
sI1633
S'81d84246a74d608f3ee63a106cbb043b'
p1635
sI1634
S'd3fabf6946d59b69ce52039159451465'
p1636
sI1635
S'ed9d28f8b48cbbc22905eb0e4939a971'
p1637
sI1636
S'f343ac1a649ec733b717010b42dfbe52'
p1638
sI1637
S'a679f7ede37b1a73af88c572c8bc2de8'
p1639
sI1638
S'65fb2f3d116f165cb28bc06b9193698d'
p1640
sI1639
S'81d84246a74d608f3ee63a106cbb043b'
p1641
sI1640
S'e9a166e354f57ce68da7aa5baed2875d'
p1642
sI1641
S'81d84246a74d608f3ee63a106cbb043b'
p1643
sI1642
S'dbf3cb02269e7d4aaecce7fdd6c2bd8e'
p1644
sI1643
S'e9a166e354f57ce68da7aa5baed2875d'
p1645
sI1644
S'81d84246a74d608f3ee63a106cbb043b'
p1646
sI1645
S'b13f88228c65c83a5f6d245ac363ba94'
p1647
sI1646
S'ed9d28f8b48cbbc22905eb0e4939a971'
p1648
sI1647
S'e9a166e354f57ce68da7aa5baed2875d'
p1649
sI1648
S'e9a166e354f57ce68da7aa5baed2875d'
p1650
sI1649
S'e9a166e354f57ce68da7aa5baed2875d'
p1651
sI1650
S'a679f7ede37b1a73af88c572c8bc2de8'
p1652
sI1651
S'81d84246a74d608f3ee63a106cbb043b'
p1653
sI1652
S'e9a166e354f57ce68da7aa5baed2875d'
p1654
sI1653
S'd3fabf6946d59b69ce52039159451465'
p1655
sI1654
S'b13f88228c65c83a5f6d245ac363ba94'
p1656
sI1655
S'a5699f2b94f800b4b7d07dfc1c584edc'
p1657
sI1656
S'a5699f2b94f800b4b7d07dfc1c584edc'
p1658
sI1657
S'a5699f2b94f800b4b7d07dfc1c584edc'
p1659
sI1658
S'b13f88228c65c83a5f6d245ac363ba94'
p1660
sI1659
S'b13f88228c65c83a5f6d245ac363ba94'
p1661
sI1660
S'e9a166e354f57ce68da7aa5baed2875d'
p1662
sI1661
S'81d84246a74d608f3ee63a106cbb043b'
p1663
sI1662
S'e9a166e354f57ce68da7aa5baed2875d'
p1664
sI1663
S'81d84246a74d608f3ee63a106cbb043b'
p1665
sI1664
S'b13f88228c65c83a5f6d245ac363ba94'
p1666
sI1665
S'ed9d28f8b48cbbc22905eb0e4939a971'
p1667
sI1666
S'f343ac1a649ec733b717010b42dfbe52'
p1668
sI1667
S'dcc318bcb4a4036655a0843b4fe7942e'
p1669
sI1668
S'a679f7ede37b1a73af88c572c8bc2de8'
p1670
sI1669
S'a663d319369b4440d88c632d121fee83'
p1671
sI1670
S'81d84246a74d608f3ee63a106cbb043b'
p1672
sI1671
S'a663d319369b4440d88c632d121fee83'
p1673
sI1672
S'd3fabf6946d59b69ce52039159451465'
p1674
sI1673
S'0bada0c8f61a201a18bf4075141375d2'
p1675
sI1674
S'b13f88228c65c83a5f6d245ac363ba94'
p1676
sI1675
S'c21bc840cbe8b66eaa21f5ee89014837'
p1677
sI1676
S'0bada0c8f61a201a18bf4075141375d2'
p1678
sI1677
S'c2ec79a92ef680fa66bf2e0f6b028d0b'
p1679
sI1678
S'5e51d4e322ad30dc81af9af8e94dda12'
p1680
sI1679
S'9319fcefef4c46f05ee84e13f48b1751'
p1681
sI1680
S'dcc318bcb4a4036655a0843b4fe7942e'
p1682
sI1681
S'dbf3cb02269e7d4aaecce7fdd6c2bd8e'
p1683
sI1682
S'dbf3cb02269e7d4aaecce7fdd6c2bd8e'
p1684
sI1683
S'c2ec79a92ef680fa66bf2e0f6b028d0b'
p1685
sI1684
S'dbf3cb02269e7d4aaecce7fdd6c2bd8e'
p1686
sI1685
S'c21bc840cbe8b66eaa21f5ee89014837'
p1687
sI1686
S'a5699f2b94f800b4b7d07dfc1c584edc'
p1688
sI1687
S'5e51d4e322ad30dc81af9af8e94dda12'
p1689
sI1688
S'ed9d28f8b48cbbc22905eb0e4939a971'
p1690
sI1689
S'8dff47aa86a53489eb367e2a8e010da2'
p1691
sI1690
S'8dff47aa86a53489eb367e2a8e010da2'
p1692
sI1691
S'ed9d28f8b48cbbc22905eb0e4939a971'
p1693
sI1692
S'dbf3cb02269e7d4aaecce7fdd6c2bd8e'
p1694
sI1693
S'c21bc840cbe8b66eaa21f5ee89014837'
p1695
sI1694
S'a679f7ede37b1a73af88c572c8bc2de8'
p1696
sI1695
S'f343ac1a649ec733b717010b42dfbe52'
p1697
sI1696
S'8dff47aa86a53489eb367e2a8e010da2'
p1698
sI1697
S'e3cdd573b784b958a109245064deaa1e'
p1699
sI1698
S'8dff47aa86a53489eb367e2a8e010da2'
p1700
sI1699
S'f343ac1a649ec733b717010b42dfbe52'
p1701
sI1700
S'c2ec79a92ef680fa66bf2e0f6b028d0b'
p1702
sI1701
S'ed9d28f8b48cbbc22905eb0e4939a971'
p1703
sI1702
S'c2ec79a92ef680fa66bf2e0f6b028d0b'
p1704
sI1703
S'b13f88228c65c83a5f6d245ac363ba94'
p1705
sI1704
S'b26c7fc245ad94a020ba3c5116b77c84'
p1706
sI1705
S'b13f88228c65c83a5f6d245ac363ba94'
p1707
sI1706
S'8dff47aa86a53489eb367e2a8e010da2'
p1708
sI1707
S'ed9d28f8b48cbbc22905eb0e4939a971'
p1709
sI1708
S'5e51d4e322ad30dc81af9af8e94dda12'
p1710
sI1709
S'8dff47aa86a53489eb367e2a8e010da2'
p1711
sI1710
S'dbf3cb02269e7d4aaecce7fdd6c2bd8e'
p1712
sI1711
S'c2ec79a92ef680fa66bf2e0f6b028d0b'
p1713
sI1712
S'a5699f2b94f800b4b7d07dfc1c584edc'
p1714
sI1713
S'a5699f2b94f800b4b7d07dfc1c584edc'
p1715
sI1714
S'dbf3cb02269e7d4aaecce7fdd6c2bd8e'
p1716
sI1715
S'ed9d28f8b48cbbc22905eb0e4939a971'
p1717
sI1716
S'5e51d4e322ad30dc81af9af8e94dda12'
p1718
sI1717
S'c2ec79a92ef680fa66bf2e0f6b028d0b'
p1719
sI1718
S'a679f7ede37b1a73af88c572c8bc2de8'
p1720
sI1719
S'ed9d28f8b48cbbc22905eb0e4939a971'
p1721
sI1720
S'5e51d4e322ad30dc81af9af8e94dda12'
p1722
sI1721
S'a679f7ede37b1a73af88c572c8bc2de8'
p1723
sI1722
S'961baca73e7bcaa813ddb82c911af5ae'
p1724
sI1723
S'2d62d55be4b8cee432ff50fcc58f7c0f'
p1725
sI1724
S'a679f7ede37b1a73af88c572c8bc2de8'
p1726
sI1725
S'5e51d4e322ad30dc81af9af8e94dda12'
p1727
sI1726
S'dbf3cb02269e7d4aaecce7fdd6c2bd8e'
p1728
sI1727
S'5e51d4e322ad30dc81af9af8e94dda12'
p1729
sI1728
S'5e51d4e322ad30dc81af9af8e94dda12'
p1730
sI1729
S'5e51d4e322ad30dc81af9af8e94dda12'
p1731
sI1730
S'5e51d4e322ad30dc81af9af8e94dda12'
p1732
sI1731
S'5e51d4e322ad30dc81af9af8e94dda12'
p1733
sI1732
S'dbf3cb02269e7d4aaecce7fdd6c2bd8e'
p1734
sI1733
S'b13f88228c65c83a5f6d245ac363ba94'
p1735
sI1734
S'b13f88228c65c83a5f6d245ac363ba94'
p1736
sI1735
S'dcc318bcb4a4036655a0843b4fe7942e'
p1737
sI1736
S'b13f88228c65c83a5f6d245ac363ba94'
p1738
sI1737
S'9319fcefef4c46f05ee84e13f48b1751'
p1739
sI1738
S'a663d319369b4440d88c632d121fee83'
p1740
sI1739
S'a663d319369b4440d88c632d121fee83'
p1741
sI1740
S'81d84246a74d608f3ee63a106cbb043b'
p1742
sI1741
S'a663d319369b4440d88c632d121fee83'
p1743
sI1742
S'b13f88228c65c83a5f6d245ac363ba94'
p1744
sI1743
S'b13f88228c65c83a5f6d245ac363ba94'
p1745
sI1744
S'5e51d4e322ad30dc81af9af8e94dda12'
p1746
sI1745
S'a663d319369b4440d88c632d121fee83'
p1747
sI1746
S'ed9d28f8b48cbbc22905eb0e4939a971'
p1748
sI1747
S'5e51d4e322ad30dc81af9af8e94dda12'
p1749
sI1748
S'b13f88228c65c83a5f6d245ac363ba94'
p1750
sI1749
S'b13f88228c65c83a5f6d245ac363ba94'
p1751
sI1750
S'5e51d4e322ad30dc81af9af8e94dda12'
p1752
sI1751
S'a663d319369b4440d88c632d121fee83'
p1753
sI1752
S'b13f88228c65c83a5f6d245ac363ba94'
p1754
sI1753
S'c2ec79a92ef680fa66bf2e0f6b028d0b'
p1755
sI1754
S'961baca73e7bcaa813ddb82c911af5ae'
p1756
sI1755
S'a663d319369b4440d88c632d121fee83'
p1757
sI1756
S'a663d319369b4440d88c632d121fee83'
p1758
sI1757
S'd3fabf6946d59b69ce52039159451465'
p1759
sI1758
S'e3cdd573b784b958a109245064deaa1e'
p1760
sI1759
S'c2ec79a92ef680fa66bf2e0f6b028d0b'
p1761
sI1760
S'a5699f2b94f800b4b7d07dfc1c584edc'
p1762
sI1761
S'c21bc840cbe8b66eaa21f5ee89014837'
p1763
sI1762
S'ed9d28f8b48cbbc22905eb0e4939a971'
p1764
sI1763
S'a663d319369b4440d88c632d121fee83'
p1765
sI1764
S'b13f88228c65c83a5f6d245ac363ba94'
p1766
sI1765
S'a5699f2b94f800b4b7d07dfc1c584edc'
p1767
sI1766
S'8fcb64811fd61f1c81c31cd3197f4b6c'
p1768
sI1767
S'a663d319369b4440d88c632d121fee83'
p1769
sI1768
S'a663d319369b4440d88c632d121fee83'
p1770
sI1769
S'b13f88228c65c83a5f6d245ac363ba94'
p1771
sI1770
S'a663d319369b4440d88c632d121fee83'
p1772
sI1771
S'ed9d28f8b48cbbc22905eb0e4939a971'
p1773
sI1772
S'b13f88228c65c83a5f6d245ac363ba94'
p1774
sI1773
S'c2ec79a92ef680fa66bf2e0f6b028d0b'
p1775
sI1774
S'fd0de6977f28814aed2373bdad80f25f'
p1776
sI1775
S'b13f88228c65c83a5f6d245ac363ba94'
p1777
sI1776
S'8fcb64811fd61f1c81c31cd3197f4b6c'
p1778
sI1777
S'b13f88228c65c83a5f6d245ac363ba94'
p1779
sI1778
S'b0f19a521e60ec72decd0620819fbed6'
p1780
sI1779
S'e3cdd573b784b958a109245064deaa1e'
p1781
sI1780
S'b0f19a521e60ec72decd0620819fbed6'
p1782
sI1781
S'e3cdd573b784b958a109245064deaa1e'
p1783
sI1782
S'b13f88228c65c83a5f6d245ac363ba94'
p1784
sI1783
S'ae92d835c48d852d70bb98be129c020e'
p1785
sI1784
S'ae92d835c48d852d70bb98be129c020e'
p1786
sI1785
S'9319fcefef4c46f05ee84e13f48b1751'
p1787
sI1786
S'2d62d55be4b8cee432ff50fcc58f7c0f'
p1788
sI1787
S'ae92d835c48d852d70bb98be129c020e'
p1789
sI1788
S'b13f88228c65c83a5f6d245ac363ba94'
p1790
sI1789
S'a663d319369b4440d88c632d121fee83'
p1791
sI1790
S'a663d319369b4440d88c632d121fee83'
p1792
sI1791
S'81d84246a74d608f3ee63a106cbb043b'
p1793
sI1792
S'a663d319369b4440d88c632d121fee83'
p1794
sI1793
S'6b7879b5036f18752ff29f13fa20e976'
p1795
sI1794
S'c2ec79a92ef680fa66bf2e0f6b028d0b'
p1796
sI1795
S'b0f19a521e60ec72decd0620819fbed6'
p1797
sI1796
S'ae92d835c48d852d70bb98be129c020e'
p1798
sI1797
S'b0f19a521e60ec72decd0620819fbed6'
p1799
sI1798
S'f343ac1a649ec733b717010b42dfbe52'
p1800
sI1799
S'81d84246a74d608f3ee63a106cbb043b'
p1801
sI1800
S'b13f88228c65c83a5f6d245ac363ba94'
p1802
sI1801
S'c2ec79a92ef680fa66bf2e0f6b028d0b'
p1803
sI1802
S'c2ec79a92ef680fa66bf2e0f6b028d0b'
p1804
sI1803
S'b13f88228c65c83a5f6d245ac363ba94'
p1805
sI1804
S'c21bc840cbe8b66eaa21f5ee89014837'
p1806
sI1805
S'a679f7ede37b1a73af88c572c8bc2de8'
p1807
sI1806
S'ed9d28f8b48cbbc22905eb0e4939a971'
p1808
sI1807
S'dcc318bcb4a4036655a0843b4fe7942e'
p1809
sI1808
S'c2ec79a92ef680fa66bf2e0f6b028d0b'
p1810
sI1809
S'c21bc840cbe8b66eaa21f5ee89014837'
p1811
sI1810
S'ed9d28f8b48cbbc22905eb0e4939a971'
p1812
sI1811
S'c2ec79a92ef680fa66bf2e0f6b028d0b'
p1813
sI1812
S'c21bc840cbe8b66eaa21f5ee89014837'
p1814
sI1813
S'81d84246a74d608f3ee63a106cbb043b'
p1815
sI1814
S'a679f7ede37b1a73af88c572c8bc2de8'
p1816
sI1815
S'b13f88228c65c83a5f6d245ac363ba94'
p1817
sI1816
S'a679f7ede37b1a73af88c572c8bc2de8'
p1818
sI1817
S'a5699f2b94f800b4b7d07dfc1c584edc'
p1819
sI1818
S'a679f7ede37b1a73af88c572c8bc2de8'
p1820
sI1819
S'dbf3cb02269e7d4aaecce7fdd6c2bd8e'
p1821
sI1820
S'b0f19a521e60ec72decd0620819fbed6'
p1822
sI1821
S'f343ac1a649ec733b717010b42dfbe52'
p1823
sI1822
S'a679f7ede37b1a73af88c572c8bc2de8'
p1824
sI1823
S'a5699f2b94f800b4b7d07dfc1c584edc'
p1825
sI1824
S'e3cdd573b784b958a109245064deaa1e'
p1826
sI1825
S'e3cdd573b784b958a109245064deaa1e'
p1827
sI1826
S'8fcb64811fd61f1c81c31cd3197f4b6c'
p1828
sI1827
S'0bada0c8f61a201a18bf4075141375d2'
p1829
sI1828
S'a679f7ede37b1a73af88c572c8bc2de8'
p1830
sI1829
S'dbf3cb02269e7d4aaecce7fdd6c2bd8e'
p1831
sI1830
S'c2ec79a92ef680fa66bf2e0f6b028d0b'
p1832
sI1831
S'a663d319369b4440d88c632d121fee83'
p1833
sI1832
S'ed9d28f8b48cbbc22905eb0e4939a971'
p1834
sI1833
S'5e51d4e322ad30dc81af9af8e94dda12'
p1835
sI1834
S'b13f88228c65c83a5f6d245ac363ba94'
p1836
sI1835
S'b0f19a521e60ec72decd0620819fbed6'
p1837
sI1836
S'a679f7ede37b1a73af88c572c8bc2de8'
p1838
sI1837
S'fd0de6977f28814aed2373bdad80f25f'
p1839
sI1838
S'ed9d28f8b48cbbc22905eb0e4939a971'
p1840
sI1839
S'c2ec79a92ef680fa66bf2e0f6b028d0b'
p1841
sI1840
S'a679f7ede37b1a73af88c572c8bc2de8'
p1842
sI1841
S'a679f7ede37b1a73af88c572c8bc2de8'
p1843
sI1842
S'a679f7ede37b1a73af88c572c8bc2de8'
p1844
sI1843
S'ed9d28f8b48cbbc22905eb0e4939a971'
p1845
sI1844
S'a679f7ede37b1a73af88c572c8bc2de8'
p1846
sI1845
S'a679f7ede37b1a73af88c572c8bc2de8'
p1847
sI1846
S'b13f88228c65c83a5f6d245ac363ba94'
p1848
sI1847
S'b13f88228c65c83a5f6d245ac363ba94'
p1849
sI1848
S'b13f88228c65c83a5f6d245ac363ba94'
p1850
sI1849
S'a679f7ede37b1a73af88c572c8bc2de8'
p1851
sI1850
S'0bada0c8f61a201a18bf4075141375d2'
p1852
sI1851
S'b13f88228c65c83a5f6d245ac363ba94'
p1853
sI1852
S'a663d319369b4440d88c632d121fee83'
p1854
sI1853
S'b13f88228c65c83a5f6d245ac363ba94'
p1855
sI1854
S'ae92d835c48d852d70bb98be129c020e'
p1856
sI1855
S'ae92d835c48d852d70bb98be129c020e'
p1857
sI1856
S'b13f88228c65c83a5f6d245ac363ba94'
p1858
sI1857
S'c2ec79a92ef680fa66bf2e0f6b028d0b'
p1859
sI1858
S'b13f88228c65c83a5f6d245ac363ba94'
p1860
sI1859
S'81d84246a74d608f3ee63a106cbb043b'
p1861
sI1860
S'ae92d835c48d852d70bb98be129c020e'
p1862
sI1861
S'c2ec79a92ef680fa66bf2e0f6b028d0b'
p1863
sI1862
S'c21bc840cbe8b66eaa21f5ee89014837'
p1864
sI1863
S'b13f88228c65c83a5f6d245ac363ba94'
p1865
sI1864
S'c21bc840cbe8b66eaa21f5ee89014837'
p1866
sI1865
S'a663d319369b4440d88c632d121fee83'
p1867
sI1866
S'9319fcefef4c46f05ee84e13f48b1751'
p1868
sI1867
S'81d84246a74d608f3ee63a106cbb043b'
p1869
sI1868
S'ed9d28f8b48cbbc22905eb0e4939a971'
p1870
sI1869
S'1377fc2c98ac09896ba48afcac24041a'
p1871
sI1870
S'ed9d28f8b48cbbc22905eb0e4939a971'
p1872
sI1871
S'b13f88228c65c83a5f6d245ac363ba94'
p1873
sI1872
S'b13f88228c65c83a5f6d245ac363ba94'
p1874
sI1873
S'ed9d28f8b48cbbc22905eb0e4939a971'
p1875
sI1874
S'ed9d28f8b48cbbc22905eb0e4939a971'
p1876
sI1875
S'b13f88228c65c83a5f6d245ac363ba94'
p1877
sI1876
S'ed9d28f8b48cbbc22905eb0e4939a971'
p1878
sI1877
S'1377fc2c98ac09896ba48afcac24041a'
p1879
sI1878
S'a5699f2b94f800b4b7d07dfc1c584edc'
p1880
sI1879
S'0bada0c8f61a201a18bf4075141375d2'
p1881
sI1880
S'b13f88228c65c83a5f6d245ac363ba94'
p1882
sI1881
S'c2ec79a92ef680fa66bf2e0f6b028d0b'
p1883
sI1882
S'a679f7ede37b1a73af88c572c8bc2de8'
p1884
sI1883
S'dcc318bcb4a4036655a0843b4fe7942e'
p1885
sI1884
S'a679f7ede37b1a73af88c572c8bc2de8'
p1886
sI1885
S'c21bc840cbe8b66eaa21f5ee89014837'
p1887
sI1886
S'c2ec79a92ef680fa66bf2e0f6b028d0b'
p1888
sI1887
S'd3fabf6946d59b69ce52039159451465'
p1889
sI1888
S'b13f88228c65c83a5f6d245ac363ba94'
p1890
sI1889
S'ae92d835c48d852d70bb98be129c020e'
p1891
sI1890
S'ae92d835c48d852d70bb98be129c020e'
p1892
sI1891
S'c21bc840cbe8b66eaa21f5ee89014837'
p1893
sI1892
S'a679f7ede37b1a73af88c572c8bc2de8'
p1894
sI1893
S'a679f7ede37b1a73af88c572c8bc2de8'
p1895
sI1894
S'a663d319369b4440d88c632d121fee83'
p1896
sI1895
S'0bada0c8f61a201a18bf4075141375d2'
p1897
sI1896
S'a663d319369b4440d88c632d121fee83'
p1898
sI1897
S'81d84246a74d608f3ee63a106cbb043b'
p1899
sI1898
S'c21bc840cbe8b66eaa21f5ee89014837'
p1900
sI1899
S'dbf3cb02269e7d4aaecce7fdd6c2bd8e'
p1901
sI1900
S'0bada0c8f61a201a18bf4075141375d2'
p1902
sI1901
S'a679f7ede37b1a73af88c572c8bc2de8'
p1903
sI1902
S'b0f19a521e60ec72decd0620819fbed6'
p1904
sI1903
S'e3cdd573b784b958a109245064deaa1e'
p1905
sI1904
S'b0f19a521e60ec72decd0620819fbed6'
p1906
sI1905
S'c21bc840cbe8b66eaa21f5ee89014837'
p1907
sI1906
S'dbf3cb02269e7d4aaecce7fdd6c2bd8e'
p1908
sI1907
S'dcc318bcb4a4036655a0843b4fe7942e'
p1909
sI1908
S'ed9d28f8b48cbbc22905eb0e4939a971'
p1910
sI1909
S'ed9d28f8b48cbbc22905eb0e4939a971'
p1911
sI1910
S'a5699f2b94f800b4b7d07dfc1c584edc'
p1912
sI1911
S'5e51d4e322ad30dc81af9af8e94dda12'
p1913
sI1912
S'a679f7ede37b1a73af88c572c8bc2de8'
p1914
sI1913
S'dbf3cb02269e7d4aaecce7fdd6c2bd8e'
p1915
sI1914
S'81d84246a74d608f3ee63a106cbb043b'
p1916
sI1915
S'a679f7ede37b1a73af88c572c8bc2de8'
p1917
sI1916
S'a679f7ede37b1a73af88c572c8bc2de8'
p1918
sI1917
S'0bada0c8f61a201a18bf4075141375d2'
p1919
sI1918
S'fd0de6977f28814aed2373bdad80f25f'
p1920
sI1919
S'dbf3cb02269e7d4aaecce7fdd6c2bd8e'
p1921
sI1920
S'c21bc840cbe8b66eaa21f5ee89014837'
p1922
sI1921
S'a679f7ede37b1a73af88c572c8bc2de8'
p1923
sI1922
S'ed9d28f8b48cbbc22905eb0e4939a971'
p1924
sI1923
S'0bada0c8f61a201a18bf4075141375d2'
p1925
sI1924
S'0bada0c8f61a201a18bf4075141375d2'
p1926
sI1925
S'0bada0c8f61a201a18bf4075141375d2'
p1927
sI1926
S'c2ec79a92ef680fa66bf2e0f6b028d0b'
p1928
sI1927
S'0bada0c8f61a201a18bf4075141375d2'
p1929
sI1928
S'81d84246a74d608f3ee63a106cbb043b'
p1930
sI1929
S'dbf3cb02269e7d4aaecce7fdd6c2bd8e'
p1931
sI1930
S'a679f7ede37b1a73af88c572c8bc2de8'
p1932
sI1931
S'ed9d28f8b48cbbc22905eb0e4939a971'
p1933
sI1932
S'a679f7ede37b1a73af88c572c8bc2de8'
p1934
sI1933
S'0bada0c8f61a201a18bf4075141375d2'
p1935
sI1934
S'c2ec79a92ef680fa66bf2e0f6b028d0b'
p1936
sI1935
S'a663d319369b4440d88c632d121fee83'
p1937
sI1936
S'0bada0c8f61a201a18bf4075141375d2'
p1938
sI1937
S'a663d319369b4440d88c632d121fee83'
p1939
sI1938
S'0bada0c8f61a201a18bf4075141375d2'
p1940
sI1939
S'a663d319369b4440d88c632d121fee83'
p1941
sI1940
S'dbf3cb02269e7d4aaecce7fdd6c2bd8e'
p1942
sI1941
S'a679f7ede37b1a73af88c572c8bc2de8'
p1943
sI1942
S'81d84246a74d608f3ee63a106cbb043b'
p1944
sI1943
S'0bada0c8f61a201a18bf4075141375d2'
p1945
sI1944
S'0bada0c8f61a201a18bf4075141375d2'
p1946
sI1945
S'5e51d4e322ad30dc81af9af8e94dda12'
p1947
sI1946
S'b13f88228c65c83a5f6d245ac363ba94'
p1948
sI1947
S'5e51d4e322ad30dc81af9af8e94dda12'
p1949
sI1948
S'5e51d4e322ad30dc81af9af8e94dda12'
p1950
sI1949
S'0bada0c8f61a201a18bf4075141375d2'
p1951
sI1950
S'a679f7ede37b1a73af88c572c8bc2de8'
p1952
sI1951
S'0bada0c8f61a201a18bf4075141375d2'
p1953
sI1952
S'0bada0c8f61a201a18bf4075141375d2'
p1954
sI1953
S'a663d319369b4440d88c632d121fee83'
p1955
sI1954
S'0bada0c8f61a201a18bf4075141375d2'
p1956
sI1955
S'0bada0c8f61a201a18bf4075141375d2'
p1957
sI1956
S'0bada0c8f61a201a18bf4075141375d2'
p1958
sI1957
S'c2ec79a92ef680fa66bf2e0f6b028d0b'
p1959
sI1958
S'a663d319369b4440d88c632d121fee83'
p1960
sI1959
S'f343ac1a649ec733b717010b42dfbe52'
p1961
sI1960
S'a679f7ede37b1a73af88c572c8bc2de8'
p1962
sI1961
S'a679f7ede37b1a73af88c572c8bc2de8'
p1963
sI1962
S'0bada0c8f61a201a18bf4075141375d2'
p1964
sI1963
S'a679f7ede37b1a73af88c572c8bc2de8'
p1965
sI1964
S'dbf3cb02269e7d4aaecce7fdd6c2bd8e'
p1966
sI1965
S'a663d319369b4440d88c632d121fee83'
p1967
sI1966
S'0bada0c8f61a201a18bf4075141375d2'
p1968
sI1967
S'81d84246a74d608f3ee63a106cbb043b'
p1969
sI1968
S'a679f7ede37b1a73af88c572c8bc2de8'
p1970
sI1969
S'a679f7ede37b1a73af88c572c8bc2de8'
p1971
sI1970
S'a663d319369b4440d88c632d121fee83'
p1972
sI1971
S'a679f7ede37b1a73af88c572c8bc2de8'
p1973
sI1972
S'0bada0c8f61a201a18bf4075141375d2'
p1974
sI1973
S'c21bc840cbe8b66eaa21f5ee89014837'
p1975
sI1974
S'a663d319369b4440d88c632d121fee83'
p1976
sI1975
S'ed9d28f8b48cbbc22905eb0e4939a971'
p1977
sI1976
S'0bada0c8f61a201a18bf4075141375d2'
p1978
sI1977
S'dcc318bcb4a4036655a0843b4fe7942e'
p1979
sI1978
S'a663d319369b4440d88c632d121fee83'
p1980
sI1979
S'd3fabf6946d59b69ce52039159451465'
p1981
sI1980
S'b26c7fc245ad94a020ba3c5116b77c84'
p1982
sI1981
S'81d84246a74d608f3ee63a106cbb043b'
p1983
sI1982
S'a679f7ede37b1a73af88c572c8bc2de8'
p1984
sI1983
S'a679f7ede37b1a73af88c572c8bc2de8'
p1985
sI1984
S'c2ec79a92ef680fa66bf2e0f6b028d0b'
p1986
sI1985
S'a663d319369b4440d88c632d121fee83'
p1987
sI1986
S'dbf3cb02269e7d4aaecce7fdd6c2bd8e'
p1988
sI1987
S'c21bc840cbe8b66eaa21f5ee89014837'
p1989
sI1988
S'5e51d4e322ad30dc81af9af8e94dda12'
p1990
sI1989
S'c2ec79a92ef680fa66bf2e0f6b028d0b'
p1991
sI1990
S'a679f7ede37b1a73af88c572c8bc2de8'
p1992
sI1991
S'dcc318bcb4a4036655a0843b4fe7942e'
p1993
sI1992
S'c2ec79a92ef680fa66bf2e0f6b028d0b'
p1994
sI1993
S'a679f7ede37b1a73af88c572c8bc2de8'
p1995
sI1994
S'dd437ad97079318550a4fa2bd5b987fe'
p1996
sI1995
S'dcc318bcb4a4036655a0843b4fe7942e'
p1997
sI1996
S'c21bc840cbe8b66eaa21f5ee89014837'
p1998
sI1997
S'a679f7ede37b1a73af88c572c8bc2de8'
p1999
sI1998
S'c21bc840cbe8b66eaa21f5ee89014837'
p2000
sI1999
S'ed9d28f8b48cbbc22905eb0e4939a971'
p2001
sI2000
S'0bada0c8f61a201a18bf4075141375d2'
p2002
sI2001
S'e3cdd573b784b958a109245064deaa1e'
p2003
sI2002
S'1c674f4da09702648fa1de63230a68de'
p2004
sI2003
S'f343ac1a649ec733b717010b42dfbe52'
p2005
sI2004
S'f343ac1a649ec733b717010b42dfbe52'
p2006
sI2005
S'a679f7ede37b1a73af88c572c8bc2de8'
p2007
sI2006
S'1c674f4da09702648fa1de63230a68de'
p2008
sI2007
S'ed9d28f8b48cbbc22905eb0e4939a971'
p2009
sI2008
S'a679f7ede37b1a73af88c572c8bc2de8'
p2010
sI2009
S'a679f7ede37b1a73af88c572c8bc2de8'
p2011
sI2010
S'c2ec79a92ef680fa66bf2e0f6b028d0b'
p2012
sI2011
S'a679f7ede37b1a73af88c572c8bc2de8'
p2013
sI2012
S'a679f7ede37b1a73af88c572c8bc2de8'
p2014
sI2013
S'a679f7ede37b1a73af88c572c8bc2de8'
p2015
sI2014
S'c2ec79a92ef680fa66bf2e0f6b028d0b'
p2016
sI2015
S'a679f7ede37b1a73af88c572c8bc2de8'
p2017
sI2016
S'a679f7ede37b1a73af88c572c8bc2de8'
p2018
sI2017
S'a679f7ede37b1a73af88c572c8bc2de8'
p2019
sI2018
S'b0f19a521e60ec72decd0620819fbed6'
p2020
sI2019
S'a679f7ede37b1a73af88c572c8bc2de8'
p2021
sI2020
S'ed9d28f8b48cbbc22905eb0e4939a971'
p2022
sI2021
S'a5699f2b94f800b4b7d07dfc1c584edc'
p2023
sI2022
S'd3fabf6946d59b69ce52039159451465'
p2024
sI2023
S'c2ec79a92ef680fa66bf2e0f6b028d0b'
p2025
sI2024
S'dcc318bcb4a4036655a0843b4fe7942e'
p2026
sI2025
S'8fcb64811fd61f1c81c31cd3197f4b6c'
p2027
sI2026
S'b0f19a521e60ec72decd0620819fbed6'
p2028
sI2027
S'b0f19a521e60ec72decd0620819fbed6'
p2029
sI2028
S'c2ec79a92ef680fa66bf2e0f6b028d0b'
p2030
sI2029
S'81d84246a74d608f3ee63a106cbb043b'
p2031
sI2030
S'5e51d4e322ad30dc81af9af8e94dda12'
p2032
sI2031
S'5e51d4e322ad30dc81af9af8e94dda12'
p2033
sI2032
S'ed9d28f8b48cbbc22905eb0e4939a971'
p2034
sI2033
S'a663d319369b4440d88c632d121fee83'
p2035
sI2034
S'81d84246a74d608f3ee63a106cbb043b'
p2036
sI2035
S'81d84246a74d608f3ee63a106cbb043b'
p2037
sI2036
S'b13f88228c65c83a5f6d245ac363ba94'
p2038
sI2037
S'dd437ad97079318550a4fa2bd5b987fe'
p2039
sI2038
S'dbf3cb02269e7d4aaecce7fdd6c2bd8e'
p2040
sI2039
S'a679f7ede37b1a73af88c572c8bc2de8'
p2041
sI2040
S'ed9d28f8b48cbbc22905eb0e4939a971'
p2042
sI2041
S'b26c7fc245ad94a020ba3c5116b77c84'
p2043
sI2042
S'5e51d4e322ad30dc81af9af8e94dda12'
p2044
sI2043
S'c2ec79a92ef680fa66bf2e0f6b028d0b'
p2045
sI2044
S'5e51d4e322ad30dc81af9af8e94dda12'
p2046
sI2045
S'5e51d4e322ad30dc81af9af8e94dda12'
p2047
sI2046
S'ed9d28f8b48cbbc22905eb0e4939a971'
p2048
sI2047
S'd3fabf6946d59b69ce52039159451465'
p2049
sI2048
S'b0f19a521e60ec72decd0620819fbed6'
p2050
sI2049
S'0bada0c8f61a201a18bf4075141375d2'
p2051
sI2050
S'fd0de6977f28814aed2373bdad80f25f'
p2052
sI2051
S'a663d319369b4440d88c632d121fee83'
p2053
sI2052
S'a679f7ede37b1a73af88c572c8bc2de8'
p2054
sI2053
S'dbf3cb02269e7d4aaecce7fdd6c2bd8e'
p2055
sI2054
S'a663d319369b4440d88c632d121fee83'
p2056
sI2055
S'dbf3cb02269e7d4aaecce7fdd6c2bd8e'
p2057
sI2056
S'a663d319369b4440d88c632d121fee83'
p2058
sI2057
S'dd437ad97079318550a4fa2bd5b987fe'
p2059
sI2058
S'81d84246a74d608f3ee63a106cbb043b'
p2060
sI2059
S'b0f19a521e60ec72decd0620819fbed6'
p2061
sI2060
S'ed9d28f8b48cbbc22905eb0e4939a971'
p2062
sI2061
S'ed9d28f8b48cbbc22905eb0e4939a971'
p2063
sI2062
S'fd0de6977f28814aed2373bdad80f25f'
p2064
sI2063
S'81d84246a74d608f3ee63a106cbb043b'
p2065
sI2064
S'ed9d28f8b48cbbc22905eb0e4939a971'
p2066
sI2065
S'dcc318bcb4a4036655a0843b4fe7942e'
p2067
sI2066
S'd3fabf6946d59b69ce52039159451465'
p2068
sI2067
S'ae92d835c48d852d70bb98be129c020e'
p2069
sI2068
S'c21bc840cbe8b66eaa21f5ee89014837'
p2070
sI2069
S'c2ec79a92ef680fa66bf2e0f6b028d0b'
p2071
sI2070
S'9319fcefef4c46f05ee84e13f48b1751'
p2072
sI2071
S'a679f7ede37b1a73af88c572c8bc2de8'
p2073
sI2072
S'dbf3cb02269e7d4aaecce7fdd6c2bd8e'
p2074
sI2073
S'a679f7ede37b1a73af88c572c8bc2de8'
p2075
sI2074
S'dd437ad97079318550a4fa2bd5b987fe'
p2076
sI2075
S'81d84246a74d608f3ee63a106cbb043b'
p2077
sI2076
S'a679f7ede37b1a73af88c572c8bc2de8'
p2078
sI2077
S'81d84246a74d608f3ee63a106cbb043b'
p2079
sI2078
S'e3cdd573b784b958a109245064deaa1e'
p2080
sI2079
S'ed9d28f8b48cbbc22905eb0e4939a971'
p2081
sI2080
S'dcc318bcb4a4036655a0843b4fe7942e'
p2082
sI2081
S'0bada0c8f61a201a18bf4075141375d2'
p2083
sI2082
S'0bada0c8f61a201a18bf4075141375d2'
p2084
sI2083
S'81d84246a74d608f3ee63a106cbb043b'
p2085
sI2084
S'0bada0c8f61a201a18bf4075141375d2'
p2086
sI2085
S'a679f7ede37b1a73af88c572c8bc2de8'
p2087
sI2086
S'e3cdd573b784b958a109245064deaa1e'
p2088
sI2087
S'f343ac1a649ec733b717010b42dfbe52'
p2089
sI2088
S'5e51d4e322ad30dc81af9af8e94dda12'
p2090
sI2089
S'dcc318bcb4a4036655a0843b4fe7942e'
p2091
sI2090
S'ed9d28f8b48cbbc22905eb0e4939a971'
p2092
sI2091
S'8fcb64811fd61f1c81c31cd3197f4b6c'
p2093
sI2092
S'ae92d835c48d852d70bb98be129c020e'
p2094
sI2093
S'dbf3cb02269e7d4aaecce7fdd6c2bd8e'
p2095
sI2094
S'b0f19a521e60ec72decd0620819fbed6'
p2096
sI2095
S'a663d319369b4440d88c632d121fee83'
p2097
sI2096
S'ae92d835c48d852d70bb98be129c020e'
p2098
sI2097
S'81d84246a74d608f3ee63a106cbb043b'
p2099
sI2098
S'0bada0c8f61a201a18bf4075141375d2'
p2100
sI2099
S'ed9d28f8b48cbbc22905eb0e4939a971'
p2101
sI2100
S'b0f19a521e60ec72decd0620819fbed6'
p2102
sI2101
S'0bada0c8f61a201a18bf4075141375d2'
p2103
sI2102
S'e9a166e354f57ce68da7aa5baed2875d'
p2104
sI2103
S'0bada0c8f61a201a18bf4075141375d2'
p2105
sI2104
S'ed9d28f8b48cbbc22905eb0e4939a971'
p2106
sI2105
S'b0f19a521e60ec72decd0620819fbed6'
p2107
sI2106
S'81d84246a74d608f3ee63a106cbb043b'
p2108
sI2107
S'a663d319369b4440d88c632d121fee83'
p2109
sI2108
S'65fb2f3d116f165cb28bc06b9193698d'
p2110
sI2109
S'ed9d28f8b48cbbc22905eb0e4939a971'
p2111
sI2110
S'c2ec79a92ef680fa66bf2e0f6b028d0b'
p2112
sI2111
S'ed9d28f8b48cbbc22905eb0e4939a971'
p2113
sI2112
S'e9a166e354f57ce68da7aa5baed2875d'
p2114
sI2113
S'c21bc840cbe8b66eaa21f5ee89014837'
p2115
sI2114
S'81d84246a74d608f3ee63a106cbb043b'
p2116
sI2115
S'a663d319369b4440d88c632d121fee83'
p2117
sI2116
S'dbf3cb02269e7d4aaecce7fdd6c2bd8e'
p2118
sI2117
S'a679f7ede37b1a73af88c572c8bc2de8'
p2119
sI2118
S'a663d319369b4440d88c632d121fee83'
p2120
sI2119
S'a679f7ede37b1a73af88c572c8bc2de8'
p2121
sI2120
S'c21bc840cbe8b66eaa21f5ee89014837'
p2122
sI2121
S'ed9d28f8b48cbbc22905eb0e4939a971'
p2123
sI2122
S'b1fb9c115485587e4fc3ac72aef2b118'
p2124
sI2123
S'1b4fb470c6e31ca02de14bfd2260e395'
p2125
sI2124
S'd3fabf6946d59b69ce52039159451465'
p2126
sI2125
S'b1fb9c115485587e4fc3ac72aef2b118'
p2127
sI2126
S'a663d319369b4440d88c632d121fee83'
p2128
sI2127
S'a663d319369b4440d88c632d121fee83'
p2129
sI2128
S'dbf3cb02269e7d4aaecce7fdd6c2bd8e'
p2130
sI2129
S'a679f7ede37b1a73af88c572c8bc2de8'
p2131
sI2130
S'e5d6dffa923d21814f9af8efddd1f69a'
p2132
sI2131
S'c2ec79a92ef680fa66bf2e0f6b028d0b'
p2133
sI2132
S'b26c7fc245ad94a020ba3c5116b77c84'
p2134
sI2133
S'b1fb9c115485587e4fc3ac72aef2b118'
p2135
sI2134
S'a679f7ede37b1a73af88c572c8bc2de8'
p2136
sI2135
S'81d84246a74d608f3ee63a106cbb043b'
p2137
sI2136
S'a679f7ede37b1a73af88c572c8bc2de8'
p2138
sI2137
S'b13f88228c65c83a5f6d245ac363ba94'
p2139
sI2138
S'81d84246a74d608f3ee63a106cbb043b'
p2140
sI2139
S'a679f7ede37b1a73af88c572c8bc2de8'
p2141
sI2140
S'961baca73e7bcaa813ddb82c911af5ae'
p2142
sI2141
S'c2ec79a92ef680fa66bf2e0f6b028d0b'
p2143
sI2142
S'ed9d28f8b48cbbc22905eb0e4939a971'
p2144
sI2143
S'f343ac1a649ec733b717010b42dfbe52'
p2145
sI2144
S'b0f19a521e60ec72decd0620819fbed6'
p2146
sI2145
S'b13f88228c65c83a5f6d245ac363ba94'
p2147
sI2146
S'ae92d835c48d852d70bb98be129c020e'
p2148
sI2147
S'c21bc840cbe8b66eaa21f5ee89014837'
p2149
sI2148
S'81d84246a74d608f3ee63a106cbb043b'
p2150
sI2149
S'c21bc840cbe8b66eaa21f5ee89014837'
p2151
sI2150
S'd3fabf6946d59b69ce52039159451465'
p2152
sI2151
S'c21bc840cbe8b66eaa21f5ee89014837'
p2153
sI2152
S'ed9d28f8b48cbbc22905eb0e4939a971'
p2154
sI2153
S'c21bc840cbe8b66eaa21f5ee89014837'
p2155
sI2154
S'a663d319369b4440d88c632d121fee83'
p2156
sI2155
S'c2ec79a92ef680fa66bf2e0f6b028d0b'
p2157
sI2156
S'c21bc840cbe8b66eaa21f5ee89014837'
p2158
sI2157
S'c21bc840cbe8b66eaa21f5ee89014837'
p2159
sI2158
S'c21bc840cbe8b66eaa21f5ee89014837'
p2160
sI2159
S'a679f7ede37b1a73af88c572c8bc2de8'
p2161
sI2160
S'c2ec79a92ef680fa66bf2e0f6b028d0b'
p2162
sI2161
S'c21bc840cbe8b66eaa21f5ee89014837'
p2163
sI2162
S'c21bc840cbe8b66eaa21f5ee89014837'
p2164
sI2163
S'c21bc840cbe8b66eaa21f5ee89014837'
p2165
sI2164
S'b26c7fc245ad94a020ba3c5116b77c84'
p2166
sI2165
S'b1fb9c115485587e4fc3ac72aef2b118'
p2167
sI2166
S'b0f19a521e60ec72decd0620819fbed6'
p2168
sI2167
S'7640d65e4b2ed645cac2939a03e7fdbe'
p2169
sI2168
S'b1fb9c115485587e4fc3ac72aef2b118'
p2170
sI2169
S'a679f7ede37b1a73af88c572c8bc2de8'
p2171
sI2170
S'a679f7ede37b1a73af88c572c8bc2de8'
p2172
sI2171
S'dbf3cb02269e7d4aaecce7fdd6c2bd8e'
p2173
sI2172
S'ed9d28f8b48cbbc22905eb0e4939a971'
p2174
sI2173
S'b26c7fc245ad94a020ba3c5116b77c84'
p2175
sI2174
S'b13f88228c65c83a5f6d245ac363ba94'
p2176
sI2175
S'c2ec79a92ef680fa66bf2e0f6b028d0b'
p2177
sI2176
S'b1fb9c115485587e4fc3ac72aef2b118'
p2178
sI2177
S'ed9d28f8b48cbbc22905eb0e4939a971'
p2179
sI2178
S'ed9d28f8b48cbbc22905eb0e4939a971'
p2180
sI2179
S'b1fb9c115485587e4fc3ac72aef2b118'
p2181
sI2180
S'8fcb64811fd61f1c81c31cd3197f4b6c'
p2182
sI2181
S'b0f19a521e60ec72decd0620819fbed6'
p2183
sI2182
S'b1fb9c115485587e4fc3ac72aef2b118'
p2184
sI2183
S'a679f7ede37b1a73af88c572c8bc2de8'
p2185
sI2184
S'a679f7ede37b1a73af88c572c8bc2de8'
p2186
sI2185
S'b0f19a521e60ec72decd0620819fbed6'
p2187
sI2186
S'c2ec79a92ef680fa66bf2e0f6b028d0b'
p2188
sI2187
S'c2ec79a92ef680fa66bf2e0f6b028d0b'
p2189
sI2188
S'a5699f2b94f800b4b7d07dfc1c584edc'
p2190
sI2189
S'c21bc840cbe8b66eaa21f5ee89014837'
p2191
sI2190
S'fd0de6977f28814aed2373bdad80f25f'
p2192
sI2191
S'ed9d28f8b48cbbc22905eb0e4939a971'
p2193
sI2192
S'b13f88228c65c83a5f6d245ac363ba94'
p2194
sI2193
S'a5699f2b94f800b4b7d07dfc1c584edc'
p2195
sI2194
S'a5699f2b94f800b4b7d07dfc1c584edc'
p2196
sI2195
S'a5699f2b94f800b4b7d07dfc1c584edc'
p2197
sI2196
S'7640d65e4b2ed645cac2939a03e7fdbe'
p2198
sI2197
S'dbf3cb02269e7d4aaecce7fdd6c2bd8e'
p2199
sI2198
S'dbf3cb02269e7d4aaecce7fdd6c2bd8e'
p2200
sI2199
S'a5699f2b94f800b4b7d07dfc1c584edc'
p2201
sI2200
S'a679f7ede37b1a73af88c572c8bc2de8'
p2202
sI2201
S'a679f7ede37b1a73af88c572c8bc2de8'
p2203
sI2202
S'ed9d28f8b48cbbc22905eb0e4939a971'
p2204
sI2203
S'c2ec79a92ef680fa66bf2e0f6b028d0b'
p2205
sI2204
S'a679f7ede37b1a73af88c572c8bc2de8'
p2206
sI2205
S'a663d319369b4440d88c632d121fee83'
p2207
sI2206
S'a5699f2b94f800b4b7d07dfc1c584edc'
p2208
sI2207
S'b0f19a521e60ec72decd0620819fbed6'
p2209
sI2208
S'b26c7fc245ad94a020ba3c5116b77c84'
p2210
sI2209
S'5e51d4e322ad30dc81af9af8e94dda12'
p2211
sI2210
S'f343ac1a649ec733b717010b42dfbe52'
p2212
sI2211
S'f343ac1a649ec733b717010b42dfbe52'
p2213
sI2212
S'a5699f2b94f800b4b7d07dfc1c584edc'
p2214
sI2213
S'dbf3cb02269e7d4aaecce7fdd6c2bd8e'
p2215
sI2214
S'a5699f2b94f800b4b7d07dfc1c584edc'
p2216
sI2215
S'a5699f2b94f800b4b7d07dfc1c584edc'
p2217
sI2216
S'e9a166e354f57ce68da7aa5baed2875d'
p2218
sI2217
S'a5699f2b94f800b4b7d07dfc1c584edc'
p2219
sI2218
S'c2ec79a92ef680fa66bf2e0f6b028d0b'
p2220
sI2219
S'b1fb9c115485587e4fc3ac72aef2b118'
p2221
sI2220
S'a5699f2b94f800b4b7d07dfc1c584edc'
p2222
sI2221
S'0bada0c8f61a201a18bf4075141375d2'
p2223
sI2222
S'81d84246a74d608f3ee63a106cbb043b'
p2224
sI2223
S'c21bc840cbe8b66eaa21f5ee89014837'
p2225
sI2224
S'c21bc840cbe8b66eaa21f5ee89014837'
p2226
sI2225
S'8fcb64811fd61f1c81c31cd3197f4b6c'
p2227
sI2226
S'b1fb9c115485587e4fc3ac72aef2b118'
p2228
sI2227
S'c2ec79a92ef680fa66bf2e0f6b028d0b'
p2229
sI2228
S'b1fb9c115485587e4fc3ac72aef2b118'
p2230
sI2229
S'b1fb9c115485587e4fc3ac72aef2b118'
p2231
sI2230
S'0bada0c8f61a201a18bf4075141375d2'
p2232
sI2231
S'dbf3cb02269e7d4aaecce7fdd6c2bd8e'
p2233
sI2232
S'dcc318bcb4a4036655a0843b4fe7942e'
p2234
sI2233
S'0bada0c8f61a201a18bf4075141375d2'
p2235
sI2234
S'b1fb9c115485587e4fc3ac72aef2b118'
p2236
sI2235
S'b1fb9c115485587e4fc3ac72aef2b118'
p2237
sI2236
S'b1fb9c115485587e4fc3ac72aef2b118'
p2238
sI2237
S'c2ec79a92ef680fa66bf2e0f6b028d0b'
p2239
sI2238
S'ed9d28f8b48cbbc22905eb0e4939a971'
p2240
sI2239
S'ae06cc39c0396c461b6ee0230c1419cc'
p2241
sI2240
S'f343ac1a649ec733b717010b42dfbe52'
p2242
sI2241
S'81d84246a74d608f3ee63a106cbb043b'
p2243
sI2242
S'a679f7ede37b1a73af88c572c8bc2de8'
p2244
sI2243
S'f343ac1a649ec733b717010b42dfbe52'
p2245
sI2244
S'a679f7ede37b1a73af88c572c8bc2de8'
p2246
sI2245
S'a679f7ede37b1a73af88c572c8bc2de8'
p2247
sI2246
S'8fcb64811fd61f1c81c31cd3197f4b6c'
p2248
sI2247
S'26216e7c7acc8f265ebe3140ccdebf50'
p2249
sI2248
S'b1fb9c115485587e4fc3ac72aef2b118'
p2250
sI2249
S'b1fb9c115485587e4fc3ac72aef2b118'
p2251
sI2250
S'b1fb9c115485587e4fc3ac72aef2b118'
p2252
sI2251
S'c2ec79a92ef680fa66bf2e0f6b028d0b'
p2253
sI2252
S'1b4fb470c6e31ca02de14bfd2260e395'
p2254
sI2253
S'81d84246a74d608f3ee63a106cbb043b'
p2255
sI2254
S'ed9d28f8b48cbbc22905eb0e4939a971'
p2256
sI2255
S'b1fb9c115485587e4fc3ac72aef2b118'
p2257
sI2256
S'b1fb9c115485587e4fc3ac72aef2b118'
p2258
sI2257
S'b1fb9c115485587e4fc3ac72aef2b118'
p2259
sI2258
S'2d62d55be4b8cee432ff50fcc58f7c0f'
p2260
sI2259
S'81d84246a74d608f3ee63a106cbb043b'
p2261
sI2260
S'c2ec79a92ef680fa66bf2e0f6b028d0b'
p2262
sI2261
S'dd437ad97079318550a4fa2bd5b987fe'
p2263
sI2262
S'ed9d28f8b48cbbc22905eb0e4939a971'
p2264
sI2263
S'c2ec79a92ef680fa66bf2e0f6b028d0b'
p2265
sI2264
S'b1fb9c115485587e4fc3ac72aef2b118'
p2266
sI2265
S'b1fb9c115485587e4fc3ac72aef2b118'
p2267
sI2266
S'a5699f2b94f800b4b7d07dfc1c584edc'
p2268
sI2267
S'8fcb64811fd61f1c81c31cd3197f4b6c'
p2269
sI2268
S'c2ec79a92ef680fa66bf2e0f6b028d0b'
p2270
sI2269
S'b1fb9c115485587e4fc3ac72aef2b118'
p2271
sI2270
S'b1fb9c115485587e4fc3ac72aef2b118'
p2272
sI2271
S'b1fb9c115485587e4fc3ac72aef2b118'
p2273
sI2272
S'a5699f2b94f800b4b7d07dfc1c584edc'
p2274
sI2273
S'a5699f2b94f800b4b7d07dfc1c584edc'
p2275
sI2274
S'c2ec79a92ef680fa66bf2e0f6b028d0b'
p2276
sI2275
S'b1fb9c115485587e4fc3ac72aef2b118'
p2277
sI2276
S'b1fb9c115485587e4fc3ac72aef2b118'
p2278
sI2277
S'ed9d28f8b48cbbc22905eb0e4939a971'
p2279
sI2278
S'd3fabf6946d59b69ce52039159451465'
p2280
sI2279
S'e9a166e354f57ce68da7aa5baed2875d'
p2281
sI2280
S'a5699f2b94f800b4b7d07dfc1c584edc'
p2282
sI2281
S'dbf3cb02269e7d4aaecce7fdd6c2bd8e'
p2283
sI2282
S'b1fb9c115485587e4fc3ac72aef2b118'
p2284
sI2283
S'e6818b7c171928daa79522a08106d7e8'
p2285
sI2284
S'e6818b7c171928daa79522a08106d7e8'
p2286
sI2285
S'e3cdd573b784b958a109245064deaa1e'
p2287
sI2286
S'5e51d4e322ad30dc81af9af8e94dda12'
p2288
sI2287
S'0bada0c8f61a201a18bf4075141375d2'
p2289
sI2288
S'2d62d55be4b8cee432ff50fcc58f7c0f'
p2290
sI2289
S'81d84246a74d608f3ee63a106cbb043b'
p2291
sI2290
S'feda36041d4d3392bb5a923b5d35cf8a'
p2292
sI2291
S'a679f7ede37b1a73af88c572c8bc2de8'
p2293
sI2292
S'd3fabf6946d59b69ce52039159451465'
p2294
sI2293
S'ae92d835c48d852d70bb98be129c020e'
p2295
sI2294
S'b1fb9c115485587e4fc3ac72aef2b118'
p2296
sI2295
S'b78909db58dc7601415b8a9a1642e062'
p2297
sI2296
S'ae92d835c48d852d70bb98be129c020e'
p2298
sI2297
S'a663d319369b4440d88c632d121fee83'
p2299
sI2298
S'ae92d835c48d852d70bb98be129c020e'
p2300
sI2299
S'a5699f2b94f800b4b7d07dfc1c584edc'
p2301
sI2300
S'ed9d28f8b48cbbc22905eb0e4939a971'
p2302
sI2301
S'dcc318bcb4a4036655a0843b4fe7942e'
p2303
sI2302
S'ed9d28f8b48cbbc22905eb0e4939a971'
p2304
sI2303
S'b0f19a521e60ec72decd0620819fbed6'
p2305
sI2304
S'a663d319369b4440d88c632d121fee83'
p2306
sI2305
S'a5699f2b94f800b4b7d07dfc1c584edc'
p2307
sI2306
S'a679f7ede37b1a73af88c572c8bc2de8'
p2308
sI2307
S'b26c7fc245ad94a020ba3c5116b77c84'
p2309
sI2308
S'ae92d835c48d852d70bb98be129c020e'
p2310
sI2309
S'ae92d835c48d852d70bb98be129c020e'
p2311
sI2310
S'5e51d4e322ad30dc81af9af8e94dda12'
p2312
sI2311
S'f343ac1a649ec733b717010b42dfbe52'
p2313
sI2312
S'c2ec79a92ef680fa66bf2e0f6b028d0b'
p2314
sI2313
S'c2ec79a92ef680fa66bf2e0f6b028d0b'
p2315
sI2314
S'a679f7ede37b1a73af88c572c8bc2de8'
p2316
sI2315
S'a5699f2b94f800b4b7d07dfc1c584edc'
p2317
sI2316
S'0bada0c8f61a201a18bf4075141375d2'
p2318
sI2317
S'c2ec79a92ef680fa66bf2e0f6b028d0b'
p2319
sI2318
S'0bada0c8f61a201a18bf4075141375d2'
p2320
sI2319
S'dbf3cb02269e7d4aaecce7fdd6c2bd8e'
p2321
sI2320
S'a679f7ede37b1a73af88c572c8bc2de8'
p2322
sI2321
S'a679f7ede37b1a73af88c572c8bc2de8'
p2323
sI2322
S'b1fb9c115485587e4fc3ac72aef2b118'
p2324
sI2323
S'ae92d835c48d852d70bb98be129c020e'
p2325
sI2324
S'ae92d835c48d852d70bb98be129c020e'
p2326
sI2325
S'ae92d835c48d852d70bb98be129c020e'
p2327
sI2326
S'a679f7ede37b1a73af88c572c8bc2de8'
p2328
sI2327
S'a679f7ede37b1a73af88c572c8bc2de8'
p2329
sI2328
S'9319fcefef4c46f05ee84e13f48b1751'
p2330
sI2329
S'7b7b5bf5b8dea5c03eaff88cde5dd145'
p2331
sI2330
S'b1fb9c115485587e4fc3ac72aef2b118'
p2332
sI2331
S'a679f7ede37b1a73af88c572c8bc2de8'
p2333
sI2332
S'c2ec79a92ef680fa66bf2e0f6b028d0b'
p2334
sI2333
S'a5699f2b94f800b4b7d07dfc1c584edc'
p2335
sI2334
S'a679f7ede37b1a73af88c572c8bc2de8'
p2336
sI2335
S'a5699f2b94f800b4b7d07dfc1c584edc'
p2337
sI2336
S'a679f7ede37b1a73af88c572c8bc2de8'
p2338
sI2337
S'a5699f2b94f800b4b7d07dfc1c584edc'
p2339
sI2338
S'a5699f2b94f800b4b7d07dfc1c584edc'
p2340
sI2339
S'8fcb64811fd61f1c81c31cd3197f4b6c'
p2341
sI2340
S'b1fb9c115485587e4fc3ac72aef2b118'
p2342
sI2341
S'c2ec79a92ef680fa66bf2e0f6b028d0b'
p2343
sI2342
S'a679f7ede37b1a73af88c572c8bc2de8'
p2344
sI2343
S'b78909db58dc7601415b8a9a1642e062'
p2345
sI2344
S'e6818b7c171928daa79522a08106d7e8'
p2346
sI2345
S'ed9d28f8b48cbbc22905eb0e4939a971'
p2347
sI2346
S'8fcb64811fd61f1c81c31cd3197f4b6c'
p2348
sI2347
S'c2ec79a92ef680fa66bf2e0f6b028d0b'
p2349
sI2348
S'9319fcefef4c46f05ee84e13f48b1751'
p2350
sI2349
S'a679f7ede37b1a73af88c572c8bc2de8'
p2351
sI2350
S'c21bc840cbe8b66eaa21f5ee89014837'
p2352
sI2351
S'9319fcefef4c46f05ee84e13f48b1751'
p2353
sI2352
S'b78909db58dc7601415b8a9a1642e062'
p2354
sI2353
S'b1fb9c115485587e4fc3ac72aef2b118'
p2355
sI2354
S'a5699f2b94f800b4b7d07dfc1c584edc'
p2356
sI2355
S'b1fb9c115485587e4fc3ac72aef2b118'
p2357
sI2356
S'ed9d28f8b48cbbc22905eb0e4939a971'
p2358
sI2357
S'c21bc840cbe8b66eaa21f5ee89014837'
p2359
sI2358
S'e9a166e354f57ce68da7aa5baed2875d'
p2360
sI2359
S'ed9d28f8b48cbbc22905eb0e4939a971'
p2361
sI2360
S'c21bc840cbe8b66eaa21f5ee89014837'
p2362
sI2361
S'b1fb9c115485587e4fc3ac72aef2b118'
p2363
sI2362
S'e9a166e354f57ce68da7aa5baed2875d'
p2364
sI2363
S'b1fb9c115485587e4fc3ac72aef2b118'
p2365
sI2364
S'a679f7ede37b1a73af88c572c8bc2de8'
p2366
sI2365
S'a679f7ede37b1a73af88c572c8bc2de8'
p2367
sI2366
S'a679f7ede37b1a73af88c572c8bc2de8'
p2368
sI2367
S'c21bc840cbe8b66eaa21f5ee89014837'
p2369
sI2368
S'e9a166e354f57ce68da7aa5baed2875d'
p2370
sI2369
S'c21bc840cbe8b66eaa21f5ee89014837'
p2371
sI2370
S'e6818b7c171928daa79522a08106d7e8'
p2372
sI2371
S'c21bc840cbe8b66eaa21f5ee89014837'
p2373
sI2372
S'1b4fb470c6e31ca02de14bfd2260e395'
p2374
sI2373
S'81d84246a74d608f3ee63a106cbb043b'
p2375
sI2374
S'ed9d28f8b48cbbc22905eb0e4939a971'
p2376
sI2375
S'fd0de6977f28814aed2373bdad80f25f'
p2377
sI2376
S'a679f7ede37b1a73af88c572c8bc2de8'
p2378
sI2377
S'a679f7ede37b1a73af88c572c8bc2de8'
p2379
sI2378
S'b1fb9c115485587e4fc3ac72aef2b118'
p2380
sI2379
S'a679f7ede37b1a73af88c572c8bc2de8'
p2381
sI2380
S'b0f19a521e60ec72decd0620819fbed6'
p2382
sI2381
S'a679f7ede37b1a73af88c572c8bc2de8'
p2383
sI2382
S'5f004dfb633bb6ce85930d48aa63eb33'
p2384
sI2383
S'a679f7ede37b1a73af88c572c8bc2de8'
p2385
sI2384
S'a679f7ede37b1a73af88c572c8bc2de8'
p2386
sI2385
S'c21bc840cbe8b66eaa21f5ee89014837'
p2387
sI2386
S'c21bc840cbe8b66eaa21f5ee89014837'
p2388
sI2387
S'9319fcefef4c46f05ee84e13f48b1751'
p2389
sI2388
S'c21bc840cbe8b66eaa21f5ee89014837'
p2390
sI2389
S'c21bc840cbe8b66eaa21f5ee89014837'
p2391
sI2390
S'c21bc840cbe8b66eaa21f5ee89014837'
p2392
sI2391
S'c21bc840cbe8b66eaa21f5ee89014837'
p2393
sI2392
S'b1fb9c115485587e4fc3ac72aef2b118'
p2394
sI2393
S'b26c7fc245ad94a020ba3c5116b77c84'
p2395
sI2394
S'5f004dfb633bb6ce85930d48aa63eb33'
p2396
sI2395
S'ed9d28f8b48cbbc22905eb0e4939a971'
p2397
sI2396
S'b78909db58dc7601415b8a9a1642e062'
p2398
sI2397
S'7b7b5bf5b8dea5c03eaff88cde5dd145'
p2399
sI2398
S'dbf3cb02269e7d4aaecce7fdd6c2bd8e'
p2400
sI2399
S'c21bc840cbe8b66eaa21f5ee89014837'
p2401
sI2400
S'b1fb9c115485587e4fc3ac72aef2b118'
p2402
sI2401
S'ae92d835c48d852d70bb98be129c020e'
p2403
sI2402
S'a679f7ede37b1a73af88c572c8bc2de8'
p2404
sI2403
S'b1fb9c115485587e4fc3ac72aef2b118'
p2405
sI2404
S'81d84246a74d608f3ee63a106cbb043b'
p2406
sI2405
S'e9a166e354f57ce68da7aa5baed2875d'
p2407
sI2406
S'd3fabf6946d59b69ce52039159451465'
p2408
sI2407
S'7640d65e4b2ed645cac2939a03e7fdbe'
p2409
sI2408
S'9319fcefef4c46f05ee84e13f48b1751'
p2410
sI2409
S'a679f7ede37b1a73af88c572c8bc2de8'
p2411
sI2410
S'dcc318bcb4a4036655a0843b4fe7942e'
p2412
sI2411
S'c2ec79a92ef680fa66bf2e0f6b028d0b'
p2413
sI2412
S'a679f7ede37b1a73af88c572c8bc2de8'
p2414
sI2413
S'b1fb9c115485587e4fc3ac72aef2b118'
p2415
sI2414
S'a679f7ede37b1a73af88c572c8bc2de8'
p2416
sI2415
S'a679f7ede37b1a73af88c572c8bc2de8'
p2417
sI2416
S'dbf3cb02269e7d4aaecce7fdd6c2bd8e'
p2418
sI2417
S'b78909db58dc7601415b8a9a1642e062'
p2419
sI2418
S'c2ec79a92ef680fa66bf2e0f6b028d0b'
p2420
sI2419
S'c21bc840cbe8b66eaa21f5ee89014837'
p2421
sI2420
S'b78909db58dc7601415b8a9a1642e062'
p2422
sI2421
S'dbf3cb02269e7d4aaecce7fdd6c2bd8e'
p2423
sI2422
S'c2ec79a92ef680fa66bf2e0f6b028d0b'
p2424
sI2423
S'ed9d28f8b48cbbc22905eb0e4939a971'
p2425
sI2424
S'b1fb9c115485587e4fc3ac72aef2b118'
p2426
sI2425
S'a663d319369b4440d88c632d121fee83'
p2427
sI2426
S'e6818b7c171928daa79522a08106d7e8'
p2428
sI2427
S'a679f7ede37b1a73af88c572c8bc2de8'
p2429
sI2428
S'c21bc840cbe8b66eaa21f5ee89014837'
p2430
sI2429
S'b0f19a521e60ec72decd0620819fbed6'
p2431
sI2430
S'e6818b7c171928daa79522a08106d7e8'
p2432
sI2431
S'a679f7ede37b1a73af88c572c8bc2de8'
p2433
sI2432
S'ed9d28f8b48cbbc22905eb0e4939a971'
p2434
sI2433
S'a5699f2b94f800b4b7d07dfc1c584edc'
p2435
sI2434
S'5e51d4e322ad30dc81af9af8e94dda12'
p2436
sI2435
S'a679f7ede37b1a73af88c572c8bc2de8'
p2437
sI2436
S'ed9d28f8b48cbbc22905eb0e4939a971'
p2438
sI2437
S'a679f7ede37b1a73af88c572c8bc2de8'
p2439
sI2438
S'c21bc840cbe8b66eaa21f5ee89014837'
p2440
sI2439
S'81d84246a74d608f3ee63a106cbb043b'
p2441
sI2440
S'ed9d28f8b48cbbc22905eb0e4939a971'
p2442
sI2441
S'ed9d28f8b48cbbc22905eb0e4939a971'
p2443
sI2442
S'c2ec79a92ef680fa66bf2e0f6b028d0b'
p2444
sI2443
S'81d84246a74d608f3ee63a106cbb043b'
p2445
sI2444
S'81d84246a74d608f3ee63a106cbb043b'
p2446
sI2445
S'fd0de6977f28814aed2373bdad80f25f'
p2447
sI2446
S'ceefd2f3c96696ad321fea97bd94a930'
p2448
sI2447
S'dbf3cb02269e7d4aaecce7fdd6c2bd8e'
p2449
sI2448
S'ed9d28f8b48cbbc22905eb0e4939a971'
p2450
sI2449
S'ceefd2f3c96696ad321fea97bd94a930'
p2451
sI2450
S'a663d319369b4440d88c632d121fee83'
p2452
sI2451
S'e9a166e354f57ce68da7aa5baed2875d'
p2453
sI2452
S'fd0de6977f28814aed2373bdad80f25f'
p2454
sI2453
S'b1fb9c115485587e4fc3ac72aef2b118'
p2455
sI2454
S'a679f7ede37b1a73af88c572c8bc2de8'
p2456
sI2455
S'a679f7ede37b1a73af88c572c8bc2de8'
p2457
sI2456
S'b1fb9c115485587e4fc3ac72aef2b118'
p2458
sI2457
S'a679f7ede37b1a73af88c572c8bc2de8'
p2459
sI2458
S'c21bc840cbe8b66eaa21f5ee89014837'
p2460
sI2459
S'c21bc840cbe8b66eaa21f5ee89014837'
p2461
sI2460
S'e6818b7c171928daa79522a08106d7e8'
p2462
sI2461
S'b78909db58dc7601415b8a9a1642e062'
p2463
sI2462
S'c21bc840cbe8b66eaa21f5ee89014837'
p2464
sI2463
S'9319fcefef4c46f05ee84e13f48b1751'
p2465
sI2464
S'666d73877301ccb1b24fe70823562513'
p2466
sI2465
S'dcc318bcb4a4036655a0843b4fe7942e'
p2467
sI2466
S'a679f7ede37b1a73af88c572c8bc2de8'
p2468
sI2467
S'a679f7ede37b1a73af88c572c8bc2de8'
p2469
sI2468
S'a679f7ede37b1a73af88c572c8bc2de8'
p2470
sI2469
S'ed9d28f8b48cbbc22905eb0e4939a971'
p2471
sI2470
S'a679f7ede37b1a73af88c572c8bc2de8'
p2472
sI2471
S'a679f7ede37b1a73af88c572c8bc2de8'
p2473
sI2472
S'a5699f2b94f800b4b7d07dfc1c584edc'
p2474
sI2473
S'5e51d4e322ad30dc81af9af8e94dda12'
p2475
sI2474
S'dcc318bcb4a4036655a0843b4fe7942e'
p2476
sI2475
S'a663d319369b4440d88c632d121fee83'
p2477
sI2476
S'a663d319369b4440d88c632d121fee83'
p2478
sI2477
S'a663d319369b4440d88c632d121fee83'
p2479
sI2478
S'b1fb9c115485587e4fc3ac72aef2b118'
p2480
sI2479
S'c21bc840cbe8b66eaa21f5ee89014837'
p2481
sI2480
S'a663d319369b4440d88c632d121fee83'
p2482
sI2481
S'a679f7ede37b1a73af88c572c8bc2de8'
p2483
sI2482
S'c21bc840cbe8b66eaa21f5ee89014837'
p2484
sI2483
S'ceefd2f3c96696ad321fea97bd94a930'
p2485
sI2484
S'8fcb64811fd61f1c81c31cd3197f4b6c'
p2486
sI2485
S'fd0de6977f28814aed2373bdad80f25f'
p2487
sI2486
S'a663d319369b4440d88c632d121fee83'
p2488
sI2487
S'ceefd2f3c96696ad321fea97bd94a930'
p2489
sI2488
S'a663d319369b4440d88c632d121fee83'
p2490
sI2489
S'666d73877301ccb1b24fe70823562513'
p2491
sI2490
S'dcc318bcb4a4036655a0843b4fe7942e'
p2492
sI2491
S'dbf3cb02269e7d4aaecce7fdd6c2bd8e'
p2493
sI2492
S'c2ec79a92ef680fa66bf2e0f6b028d0b'
p2494
sI2493
S'a663d319369b4440d88c632d121fee83'
p2495
sI2494
S'b0f19a521e60ec72decd0620819fbed6'
p2496
sI2495
S'7640d65e4b2ed645cac2939a03e7fdbe'
p2497
sI2496
S'b1fb9c115485587e4fc3ac72aef2b118'
p2498
sI2497
S'b0f19a521e60ec72decd0620819fbed6'
p2499
sI2498
S'ed9d28f8b48cbbc22905eb0e4939a971'
p2500
sI2499
S'10be300cc18fb4157cc460ebf0ff5a80'
p2501
sI2500
S'b0f19a521e60ec72decd0620819fbed6'
p2502
sI2501
S'c2ec79a92ef680fa66bf2e0f6b028d0b'
p2503
sI2502
S'b1fb9c115485587e4fc3ac72aef2b118'
p2504
sI2503
S'fd0de6977f28814aed2373bdad80f25f'
p2505
sI2504
S'b1fb9c115485587e4fc3ac72aef2b118'
p2506
sI2505
S'81d84246a74d608f3ee63a106cbb043b'
p2507
sI2506
S'a663d319369b4440d88c632d121fee83'
p2508
sI2507
S'81d84246a74d608f3ee63a106cbb043b'
p2509
sI2508
S'dbf3cb02269e7d4aaecce7fdd6c2bd8e'
p2510
sI2509
S'0bada0c8f61a201a18bf4075141375d2'
p2511
sI2510
S'e6818b7c171928daa79522a08106d7e8'
p2512
sI2511
S'1377fc2c98ac09896ba48afcac24041a'
p2513
sI2512
S'7b7b5bf5b8dea5c03eaff88cde5dd145'
p2514
sI2513
S'0bada0c8f61a201a18bf4075141375d2'
p2515
sI2514
S'b1fb9c115485587e4fc3ac72aef2b118'
p2516
sI2515
S'b1fb9c115485587e4fc3ac72aef2b118'
p2517
sI2516
S'dbf3cb02269e7d4aaecce7fdd6c2bd8e'
p2518
sI2517
S'a679f7ede37b1a73af88c572c8bc2de8'
p2519
sI2518
S'666d73877301ccb1b24fe70823562513'
p2520
sI2519
S'9319fcefef4c46f05ee84e13f48b1751'
p2521
sI2520
S'9319fcefef4c46f05ee84e13f48b1751'
p2522
sI2521
S'b1fb9c115485587e4fc3ac72aef2b118'
p2523
sI2522
S'97552fa76499e6895eafdc0814aebdfe'
p2524
sI2523
S'81d84246a74d608f3ee63a106cbb043b'
p2525
sI2524
S'dbf3cb02269e7d4aaecce7fdd6c2bd8e'
p2526
sI2525
S'5e51d4e322ad30dc81af9af8e94dda12'
p2527
sI2526
S'c2ec79a92ef680fa66bf2e0f6b028d0b'
p2528
sI2527
S'666d73877301ccb1b24fe70823562513'
p2529
sI2528
S'e6818b7c171928daa79522a08106d7e8'
p2530
sI2529
S'9319fcefef4c46f05ee84e13f48b1751'
p2531
sI2530
S'dd437ad97079318550a4fa2bd5b987fe'
p2532
sI2531
S'b0f19a521e60ec72decd0620819fbed6'
p2533
sI2532
S'b1fb9c115485587e4fc3ac72aef2b118'
p2534
sI2533
S'b0f19a521e60ec72decd0620819fbed6'
p2535
sI2534
S'ed9d28f8b48cbbc22905eb0e4939a971'
p2536
sI2535
S'7640d65e4b2ed645cac2939a03e7fdbe'
p2537
sI2536
S'9319fcefef4c46f05ee84e13f48b1751'
p2538
sI2537
S'7640d65e4b2ed645cac2939a03e7fdbe'
p2539
sI2538
S'ffa96a13101c4baee282ee042ace2192'
p2540
sI2539
S'c2ec79a92ef680fa66bf2e0f6b028d0b'
p2541
sI2540
S'c2ec79a92ef680fa66bf2e0f6b028d0b'
p2542
sI2541
S'a679f7ede37b1a73af88c572c8bc2de8'
p2543
sI2542
S'5f004dfb633bb6ce85930d48aa63eb33'
p2544
sI2543
S'ffa96a13101c4baee282ee042ace2192'
p2545
sI2544
S'a663d319369b4440d88c632d121fee83'
p2546
sI2545
S'a663d319369b4440d88c632d121fee83'
p2547
sI2546
S'e9a166e354f57ce68da7aa5baed2875d'
p2548
sI2547
S'b1fb9c115485587e4fc3ac72aef2b118'
p2549
sI2548
S'961baca73e7bcaa813ddb82c911af5ae'
p2550
sI2549
S'ceefd2f3c96696ad321fea97bd94a930'
p2551
sI2550
S'ed9d28f8b48cbbc22905eb0e4939a971'
p2552
sI2551
S'fd0de6977f28814aed2373bdad80f25f'
p2553
sI2552
S'ed9d28f8b48cbbc22905eb0e4939a971'
p2554
sI2553
S'ed9d28f8b48cbbc22905eb0e4939a971'
p2555
sI2554
S'ed9d28f8b48cbbc22905eb0e4939a971'
p2556
sI2555
S'ceefd2f3c96696ad321fea97bd94a930'
p2557
sI2556
S'2d62d55be4b8cee432ff50fcc58f7c0f'
p2558
sI2557
S'2d62d55be4b8cee432ff50fcc58f7c0f'
p2559
sI2558
S'ed9d28f8b48cbbc22905eb0e4939a971'
p2560
sI2559
S'9319fcefef4c46f05ee84e13f48b1751'
p2561
sI2560
S'8fcb64811fd61f1c81c31cd3197f4b6c'
p2562
sI2561
S'a5699f2b94f800b4b7d07dfc1c584edc'
p2563
sI2562
S'7640d65e4b2ed645cac2939a03e7fdbe'
p2564
sI2563
S'ffa96a13101c4baee282ee042ace2192'
p2565
sI2564
S'7640d65e4b2ed645cac2939a03e7fdbe'
p2566
sI2565
S'7640d65e4b2ed645cac2939a03e7fdbe'
p2567
sI2566
S'b1fb9c115485587e4fc3ac72aef2b118'
p2568
sI2567
S'b0f19a521e60ec72decd0620819fbed6'
p2569
sI2568
S'9319fcefef4c46f05ee84e13f48b1751'
p2570
sI2569
S'7640d65e4b2ed645cac2939a03e7fdbe'
p2571
sI2570
S'c21bc840cbe8b66eaa21f5ee89014837'
p2572
sI2571
S'e6818b7c171928daa79522a08106d7e8'
p2573
sI2572
S'c2ec79a92ef680fa66bf2e0f6b028d0b'
p2574
sI2573
S'b1fb9c115485587e4fc3ac72aef2b118'
p2575
sI2574
S'81d84246a74d608f3ee63a106cbb043b'
p2576
sI2575
S'a679f7ede37b1a73af88c572c8bc2de8'
p2577
sI2576
S'b1fb9c115485587e4fc3ac72aef2b118'
p2578
sI2577
S'0bada0c8f61a201a18bf4075141375d2'
p2579
sI2578
S'7640d65e4b2ed645cac2939a03e7fdbe'
p2580
sI2579
S'fd35334b114cf4d1ddc57829c255b0bd'
p2581
sI2580
S'b1fb9c115485587e4fc3ac72aef2b118'
p2582
sI2581
S'dbf3cb02269e7d4aaecce7fdd6c2bd8e'
p2583
sI2582
S'd3fabf6946d59b69ce52039159451465'
p2584
sI2583
S'c2ec79a92ef680fa66bf2e0f6b028d0b'
p2585
sI2584
S'81d84246a74d608f3ee63a106cbb043b'
p2586
sI2585
S'b1fb9c115485587e4fc3ac72aef2b118'
p2587
sI2586
S'8fcb64811fd61f1c81c31cd3197f4b6c'
p2588
sI2587
S'9319fcefef4c46f05ee84e13f48b1751'
p2589
sI2588
S'9319fcefef4c46f05ee84e13f48b1751'
p2590
sI2589
S'ed9d28f8b48cbbc22905eb0e4939a971'
p2591
sI2590
S'a663d319369b4440d88c632d121fee83'
p2592
sI2591
S'9319fcefef4c46f05ee84e13f48b1751'
p2593
sI2592
S'f7d8ae458eff12489df5d950117ef847'
p2594
sI2593
S'7640d65e4b2ed645cac2939a03e7fdbe'
p2595
sI2594
S'ccfb4199a0c39b110275c2e5d719e111'
p2596
sI2595
S'81d84246a74d608f3ee63a106cbb043b'
p2597
sI2596
S'e9a166e354f57ce68da7aa5baed2875d'
p2598
sI2597
S'ceefd2f3c96696ad321fea97bd94a930'
p2599
sI2598
S'b1fb9c115485587e4fc3ac72aef2b118'
p2600
sI2599
S'b1fb9c115485587e4fc3ac72aef2b118'
p2601
sI2600
S'a679f7ede37b1a73af88c572c8bc2de8'
p2602
sI2601
S'81d84246a74d608f3ee63a106cbb043b'
p2603
sI2602
S'e6818b7c171928daa79522a08106d7e8'
p2604
sI2603
S'81d84246a74d608f3ee63a106cbb043b'
p2605
sI2604
S'1377fc2c98ac09896ba48afcac24041a'
p2606
sI2605
S'ed9d28f8b48cbbc22905eb0e4939a971'
p2607
sI2606
S'58d3c44e5215926336e051691a68a0f9'
p2608
sI2607
S'ed9d28f8b48cbbc22905eb0e4939a971'
p2609
sI2608
S'1377fc2c98ac09896ba48afcac24041a'
p2610
sI2609
S'1377fc2c98ac09896ba48afcac24041a'
p2611
sI2610
S'ceefd2f3c96696ad321fea97bd94a930'
p2612
sI2611
S'1377fc2c98ac09896ba48afcac24041a'
p2613
sI2612
S'10be300cc18fb4157cc460ebf0ff5a80'
p2614
sI2613
S'1377fc2c98ac09896ba48afcac24041a'
p2615
sI2614
S'1377fc2c98ac09896ba48afcac24041a'
p2616
sI2615
S'1377fc2c98ac09896ba48afcac24041a'
p2617
sI2616
S'c2ec79a92ef680fa66bf2e0f6b028d0b'
p2618
sI2617
S'c21bc840cbe8b66eaa21f5ee89014837'
p2619
sI2618
S'c21bc840cbe8b66eaa21f5ee89014837'
p2620
sI2619
S'1377fc2c98ac09896ba48afcac24041a'
p2621
sI2620
S'b1fb9c115485587e4fc3ac72aef2b118'
p2622
sI2621
S'1377fc2c98ac09896ba48afcac24041a'
p2623
sI2622
S'81d84246a74d608f3ee63a106cbb043b'
p2624
sI2623
S'f7d8ae458eff12489df5d950117ef847'
p2625
sI2624
S'c2ec79a92ef680fa66bf2e0f6b028d0b'
p2626
sI2625
S'9319fcefef4c46f05ee84e13f48b1751'
p2627
sI2626
S'c21bc840cbe8b66eaa21f5ee89014837'
p2628
sI2627
S'c21bc840cbe8b66eaa21f5ee89014837'
p2629
sI2628
S'1377fc2c98ac09896ba48afcac24041a'
p2630
sI2629
S'1377fc2c98ac09896ba48afcac24041a'
p2631
sI2630
S'1377fc2c98ac09896ba48afcac24041a'
p2632
sI2631
S'f7d8ae458eff12489df5d950117ef847'
p2633
sI2632
S'a5699f2b94f800b4b7d07dfc1c584edc'
p2634
sI2633
S'ed9d28f8b48cbbc22905eb0e4939a971'
p2635
sI2634
S'f7d8ae458eff12489df5d950117ef847'
p2636
sI2635
S'81d84246a74d608f3ee63a106cbb043b'
p2637
sI2636
S'a679f7ede37b1a73af88c572c8bc2de8'
p2638
sI2637
S'ae06cc39c0396c461b6ee0230c1419cc'
p2639
sI2638
S'ccfb4199a0c39b110275c2e5d719e111'
p2640
sI2639
S'10be300cc18fb4157cc460ebf0ff5a80'
p2641
sI2640
S'b1fb9c115485587e4fc3ac72aef2b118'
p2642
sI2641
S'1377fc2c98ac09896ba48afcac24041a'
p2643
sI2642
S'ccfb4199a0c39b110275c2e5d719e111'
p2644
sI2643
S'81d84246a74d608f3ee63a106cbb043b'
p2645
sI2644
S'1377fc2c98ac09896ba48afcac24041a'
p2646
sI2645
S'9319fcefef4c46f05ee84e13f48b1751'
p2647
sI2646
S'1377fc2c98ac09896ba48afcac24041a'
p2648
sI2647
S'dbf3cb02269e7d4aaecce7fdd6c2bd8e'
p2649
sI2648
S'1377fc2c98ac09896ba48afcac24041a'
p2650
sI2649
S'b1fb9c115485587e4fc3ac72aef2b118'
p2651
sI2650
S'ae06cc39c0396c461b6ee0230c1419cc'
p2652
sI2651
S'fd0de6977f28814aed2373bdad80f25f'
p2653
sI2652
S'c21bc840cbe8b66eaa21f5ee89014837'
p2654
sI2653
S'1377fc2c98ac09896ba48afcac24041a'
p2655
sI2654
S'ceefd2f3c96696ad321fea97bd94a930'
p2656
sI2655
S'b1fb9c115485587e4fc3ac72aef2b118'
p2657
sI2656
S'a679f7ede37b1a73af88c572c8bc2de8'
p2658
sI2657
S'b1fb9c115485587e4fc3ac72aef2b118'
p2659
sI2658
S'81d84246a74d608f3ee63a106cbb043b'
p2660
sI2659
S'ae06cc39c0396c461b6ee0230c1419cc'
p2661
sI2660
S'a679f7ede37b1a73af88c572c8bc2de8'
p2662
sI2661
S'ed9d28f8b48cbbc22905eb0e4939a971'
p2663
sI2662
S'b1fb9c115485587e4fc3ac72aef2b118'
p2664
sI2663
S'81d84246a74d608f3ee63a106cbb043b'
p2665
sI2664
S'6b7879b5036f18752ff29f13fa20e976'
p2666
sI2665
S'7640d65e4b2ed645cac2939a03e7fdbe'
p2667
sI2666
S'ceefd2f3c96696ad321fea97bd94a930'
p2668
sI2667
S'6b7879b5036f18752ff29f13fa20e976'
p2669
sI2668
S'ceefd2f3c96696ad321fea97bd94a930'
p2670
sI2669
S'ceefd2f3c96696ad321fea97bd94a930'
p2671
sI2670
S'dbf3cb02269e7d4aaecce7fdd6c2bd8e'
p2672
sI2671
S'b1fb9c115485587e4fc3ac72aef2b118'
p2673
sI2672
S'ccfb4199a0c39b110275c2e5d719e111'
p2674
sI2673
S'd3fabf6946d59b69ce52039159451465'
p2675
sI2674
S'ed9d28f8b48cbbc22905eb0e4939a971'
p2676
sI2675
S'b1fb9c115485587e4fc3ac72aef2b118'
p2677
sI2676
S'a663d319369b4440d88c632d121fee83'
p2678
sI2677
S'7640d65e4b2ed645cac2939a03e7fdbe'
p2679
sI2678
S'7640d65e4b2ed645cac2939a03e7fdbe'
p2680
sI2679
S'666d73877301ccb1b24fe70823562513'
p2681
sI2680
S'10be300cc18fb4157cc460ebf0ff5a80'
p2682
sI2681
S'b1fb9c115485587e4fc3ac72aef2b118'
p2683
sI2682
S'a5699f2b94f800b4b7d07dfc1c584edc'
p2684
sI2683
S'7640d65e4b2ed645cac2939a03e7fdbe'
p2685
sI2684
S'a5699f2b94f800b4b7d07dfc1c584edc'
p2686
sI2685
S'7640d65e4b2ed645cac2939a03e7fdbe'
p2687
sI2686
S'b26c7fc245ad94a020ba3c5116b77c84'
p2688
sI2687
S'c2ec79a92ef680fa66bf2e0f6b028d0b'
p2689
sI2688
S'a679f7ede37b1a73af88c572c8bc2de8'
p2690
sI2689
S'e6818b7c171928daa79522a08106d7e8'
p2691
sI2690
S'c2ec79a92ef680fa66bf2e0f6b028d0b'
p2692
sI2691
S'10be300cc18fb4157cc460ebf0ff5a80'
p2693
sI2692
S'0bada0c8f61a201a18bf4075141375d2'
p2694
sI2693
S'a679f7ede37b1a73af88c572c8bc2de8'
p2695
sI2694
S'33854509cd2f5c3e112ae3ab148bc35c'
p2696
sI2695
S'a679f7ede37b1a73af88c572c8bc2de8'
p2697
sI2696
S'ccfb4199a0c39b110275c2e5d719e111'
p2698
sI2697
S'c21bc840cbe8b66eaa21f5ee89014837'
p2699
sI2698
S'f7d8ae458eff12489df5d950117ef847'
p2700
sI2699
S'c21bc840cbe8b66eaa21f5ee89014837'
p2701
sI2700
S'58d3c44e5215926336e051691a68a0f9'
p2702
sI2701
S'7640d65e4b2ed645cac2939a03e7fdbe'
p2703
sI2702
S'10be300cc18fb4157cc460ebf0ff5a80'
p2704
sI2703
S'1b4fb470c6e31ca02de14bfd2260e395'
p2705
sI2704
S'9319fcefef4c46f05ee84e13f48b1751'
p2706
sI2705
S'f7d8ae458eff12489df5d950117ef847'
p2707
sI2706
S'f7d8ae458eff12489df5d950117ef847'
p2708
sI2707
S'a679f7ede37b1a73af88c572c8bc2de8'
p2709
sI2708
S'f7d8ae458eff12489df5d950117ef847'
p2710
sI2709
S'c21bc840cbe8b66eaa21f5ee89014837'
p2711
sI2710
S'a679f7ede37b1a73af88c572c8bc2de8'
p2712
sI2711
S'dcc318bcb4a4036655a0843b4fe7942e'
p2713
sI2712
S'dcc318bcb4a4036655a0843b4fe7942e'
p2714
sI2713
S'c21bc840cbe8b66eaa21f5ee89014837'
p2715
sI2714
S'a679f7ede37b1a73af88c572c8bc2de8'
p2716
sI2715
S'f7d8ae458eff12489df5d950117ef847'
p2717
sI2716
S'a679f7ede37b1a73af88c572c8bc2de8'
p2718
sI2717
S'a663d319369b4440d88c632d121fee83'
p2719
sI2718
S'a679f7ede37b1a73af88c572c8bc2de8'
p2720
sI2719
S'9319fcefef4c46f05ee84e13f48b1751'
p2721
sI2720
S'7640d65e4b2ed645cac2939a03e7fdbe'
p2722
sI2721
S'9319fcefef4c46f05ee84e13f48b1751'
p2723
sI2722
S'0bada0c8f61a201a18bf4075141375d2'
p2724
sI2723
S'c21bc840cbe8b66eaa21f5ee89014837'
p2725
sI2724
S'c21bc840cbe8b66eaa21f5ee89014837'
p2726
sI2725
S'9319fcefef4c46f05ee84e13f48b1751'
p2727
sI2726
S'b1fb9c115485587e4fc3ac72aef2b118'
p2728
sI2727
S'9319fcefef4c46f05ee84e13f48b1751'
p2729
sI2728
S'c21bc840cbe8b66eaa21f5ee89014837'
p2730
sI2729
S'b0f19a521e60ec72decd0620819fbed6'
p2731
sI2730
S'b1fb9c115485587e4fc3ac72aef2b118'
p2732
sI2731
S'5e51d4e322ad30dc81af9af8e94dda12'
p2733
sI2732
S'c21bc840cbe8b66eaa21f5ee89014837'
p2734
sI2733
S'c21bc840cbe8b66eaa21f5ee89014837'
p2735
sI2734
S'c21bc840cbe8b66eaa21f5ee89014837'
p2736
sI2735
S'10be300cc18fb4157cc460ebf0ff5a80'
p2737
sI2736
S'dcc318bcb4a4036655a0843b4fe7942e'
p2738
sI2737
S'b1fb9c115485587e4fc3ac72aef2b118'
p2739
sI2738
S'b26c7fc245ad94a020ba3c5116b77c84'
p2740
sI2739
S'b1fb9c115485587e4fc3ac72aef2b118'
p2741
sI2740
S'10be300cc18fb4157cc460ebf0ff5a80'
p2742
sI2741
S'c21bc840cbe8b66eaa21f5ee89014837'
p2743
sI2742
S'f7d8ae458eff12489df5d950117ef847'
p2744
sI2743
S'81d84246a74d608f3ee63a106cbb043b'
p2745
sI2744
S'f7d8ae458eff12489df5d950117ef847'
p2746
sI2745
S'81d84246a74d608f3ee63a106cbb043b'
p2747
sI2746
S'c21bc840cbe8b66eaa21f5ee89014837'
p2748
sI2747
S'c21bc840cbe8b66eaa21f5ee89014837'
p2749
sI2748
S'c21bc840cbe8b66eaa21f5ee89014837'
p2750
sI2749
S'c21bc840cbe8b66eaa21f5ee89014837'
p2751
sI2750
S'c21bc840cbe8b66eaa21f5ee89014837'
p2752
sI2751
S'7640d65e4b2ed645cac2939a03e7fdbe'
p2753
sI2752
S'7640d65e4b2ed645cac2939a03e7fdbe'
p2754
sI2753
S'7640d65e4b2ed645cac2939a03e7fdbe'
p2755
sI2754
S'c21bc840cbe8b66eaa21f5ee89014837'
p2756
sI2755
S'666d73877301ccb1b24fe70823562513'
p2757
sI2756
S'b78909db58dc7601415b8a9a1642e062'
p2758
sI2757
S'a663d319369b4440d88c632d121fee83'
p2759
sI2758
S'c21bc840cbe8b66eaa21f5ee89014837'
p2760
sI2759
S'10be300cc18fb4157cc460ebf0ff5a80'
p2761
sI2760
S'c2ec79a92ef680fa66bf2e0f6b028d0b'
p2762
sI2761
S'c2ec79a92ef680fa66bf2e0f6b028d0b'
p2763
sI2762
S'dbf3cb02269e7d4aaecce7fdd6c2bd8e'
p2764
sI2763
S'7640d65e4b2ed645cac2939a03e7fdbe'
p2765
sI2764
S'b1fb9c115485587e4fc3ac72aef2b118'
p2766
sI2765
S'ed9d28f8b48cbbc22905eb0e4939a971'
p2767
sI2766
S'c2ec79a92ef680fa66bf2e0f6b028d0b'
p2768
sI2767
S'7640d65e4b2ed645cac2939a03e7fdbe'
p2769
sI2768
S'b1fb9c115485587e4fc3ac72aef2b118'
p2770
sI2769
S'7640d65e4b2ed645cac2939a03e7fdbe'
p2771
sI2770
S'1377fc2c98ac09896ba48afcac24041a'
p2772
sI2771
S'ceefd2f3c96696ad321fea97bd94a930'
p2773
sI2772
S'7640d65e4b2ed645cac2939a03e7fdbe'
p2774
sI2773
S'1377fc2c98ac09896ba48afcac24041a'
p2775
sI2774
S'b1fb9c115485587e4fc3ac72aef2b118'
p2776
sI2775
S'b26c7fc245ad94a020ba3c5116b77c84'
p2777
sI2776
S'dbf3cb02269e7d4aaecce7fdd6c2bd8e'
p2778
sI2777
S'c7f633833deb7757b7d9ddf3d8fa3180'
p2779
sI2778
S'c2ec79a92ef680fa66bf2e0f6b028d0b'
p2780
sI2779
S'c7f633833deb7757b7d9ddf3d8fa3180'
p2781
sI2780
S'c7f633833deb7757b7d9ddf3d8fa3180'
p2782
sI2781
S'a679f7ede37b1a73af88c572c8bc2de8'
p2783
sI2782
S'c7f633833deb7757b7d9ddf3d8fa3180'
p2784
sI2783
S'666d73877301ccb1b24fe70823562513'
p2785
sI2784
S'c21bc840cbe8b66eaa21f5ee89014837'
p2786
sI2785
S'a679f7ede37b1a73af88c572c8bc2de8'
p2787
sI2786
S'9319fcefef4c46f05ee84e13f48b1751'
p2788
sI2787
S'7640d65e4b2ed645cac2939a03e7fdbe'
p2789
sI2788
S'7640d65e4b2ed645cac2939a03e7fdbe'
p2790
sI2789
S'c21bc840cbe8b66eaa21f5ee89014837'
p2791
sI2790
S'9319fcefef4c46f05ee84e13f48b1751'
p2792
sI2791
S'1b4fb470c6e31ca02de14bfd2260e395'
p2793
sI2792
S'c21bc840cbe8b66eaa21f5ee89014837'
p2794
sI2793
S'7640d65e4b2ed645cac2939a03e7fdbe'
p2795
sI2794
S'0bada0c8f61a201a18bf4075141375d2'
p2796
sI2795
S'ccfb4199a0c39b110275c2e5d719e111'
p2797
sI2796
S'9319fcefef4c46f05ee84e13f48b1751'
p2798
sI2797
S'c21bc840cbe8b66eaa21f5ee89014837'
p2799
sI2798
S'7b084b261fdcb58481d1cef12a46f0da'
p2800
sI2799
S'c21bc840cbe8b66eaa21f5ee89014837'
p2801
sI2800
S'ccfb4199a0c39b110275c2e5d719e111'
p2802
sI2801
S'b0f19a521e60ec72decd0620819fbed6'
p2803
sI2802
S'666d73877301ccb1b24fe70823562513'
p2804
sI2803
S'c2ec79a92ef680fa66bf2e0f6b028d0b'
p2805
sI2804
S'7640d65e4b2ed645cac2939a03e7fdbe'
p2806
sI2805
S'7640d65e4b2ed645cac2939a03e7fdbe'
p2807
sI2806
S'c21bc840cbe8b66eaa21f5ee89014837'
p2808
sI2807
S'0bada0c8f61a201a18bf4075141375d2'
p2809
sI2808
S'c21bc840cbe8b66eaa21f5ee89014837'
p2810
sI2809
S'e6818b7c171928daa79522a08106d7e8'
p2811
sI2810
S'e6818b7c171928daa79522a08106d7e8'
p2812
sI2811
S'58d3c44e5215926336e051691a68a0f9'
p2813
sI2812
S'ccfb4199a0c39b110275c2e5d719e111'
p2814
sI2813
S'7640d65e4b2ed645cac2939a03e7fdbe'
p2815
sI2814
S'ed9d28f8b48cbbc22905eb0e4939a971'
p2816
sI2815
S'b1fb9c115485587e4fc3ac72aef2b118'
p2817
sI2816
S'58d3c44e5215926336e051691a68a0f9'
p2818
sI2817
S'9319fcefef4c46f05ee84e13f48b1751'
p2819
sI2818
S'666d73877301ccb1b24fe70823562513'
p2820
sI2819
S'c21bc840cbe8b66eaa21f5ee89014837'
p2821
sI2820
S'c7f633833deb7757b7d9ddf3d8fa3180'
p2822
sI2821
S'c21bc840cbe8b66eaa21f5ee89014837'
p2823
sI2822
S'c21bc840cbe8b66eaa21f5ee89014837'
p2824
sI2823
S'ed9d28f8b48cbbc22905eb0e4939a971'
p2825
sI2824
S'10be300cc18fb4157cc460ebf0ff5a80'
p2826
sI2825
S'ccfb4199a0c39b110275c2e5d719e111'
p2827
sI2826
S'c2ec79a92ef680fa66bf2e0f6b028d0b'
p2828
sI2827
S'81d84246a74d608f3ee63a106cbb043b'
p2829
sI2828
S'a663d319369b4440d88c632d121fee83'
p2830
sI2829
S'f343ac1a649ec733b717010b42dfbe52'
p2831
sI2830
S'9319fcefef4c46f05ee84e13f48b1751'
p2832
sI2831
S'c21bc840cbe8b66eaa21f5ee89014837'
p2833
sI2832
S'c21bc840cbe8b66eaa21f5ee89014837'
p2834
sI2833
S'c21bc840cbe8b66eaa21f5ee89014837'
p2835
sI2834
S'dbf3cb02269e7d4aaecce7fdd6c2bd8e'
p2836
sI2835
S'ed9d28f8b48cbbc22905eb0e4939a971'
p2837
sI2836
S'ccfb4199a0c39b110275c2e5d719e111'
p2838
sI2837
S'33854509cd2f5c3e112ae3ab148bc35c'
p2839
sI2838
S'9319fcefef4c46f05ee84e13f48b1751'
p2840
sI2839
S'e6818b7c171928daa79522a08106d7e8'
p2841
sI2840
S'c7f633833deb7757b7d9ddf3d8fa3180'
p2842
sI2841
S'c7f633833deb7757b7d9ddf3d8fa3180'
p2843
sI2842
S'ccfb4199a0c39b110275c2e5d719e111'
p2844
sI2843
S'ccfb4199a0c39b110275c2e5d719e111'
p2845
sI2844
S'd3fabf6946d59b69ce52039159451465'
p2846
sI2845
S'ceefd2f3c96696ad321fea97bd94a930'
p2847
sI2846
S'81d84246a74d608f3ee63a106cbb043b'
p2848
sI2847
S'ceefd2f3c96696ad321fea97bd94a930'
p2849
sI2848
S'c21bc840cbe8b66eaa21f5ee89014837'
p2850
sI2849
S'5f004dfb633bb6ce85930d48aa63eb33'
p2851
sI2850
S'c2ec79a92ef680fa66bf2e0f6b028d0b'
p2852
sI2851
S'ceefd2f3c96696ad321fea97bd94a930'
p2853
sI2852
S'c21bc840cbe8b66eaa21f5ee89014837'
p2854
sI2853
S'7b7b5bf5b8dea5c03eaff88cde5dd145'
p2855
sI2854
S'ae92d835c48d852d70bb98be129c020e'
p2856
sI2855
S'b26c7fc245ad94a020ba3c5116b77c84'
p2857
sI2856
S'c21bc840cbe8b66eaa21f5ee89014837'
p2858
sI2857
S'33854509cd2f5c3e112ae3ab148bc35c'
p2859
sI2858
S'ed9d28f8b48cbbc22905eb0e4939a971'
p2860
sI2859
S'b0f19a521e60ec72decd0620819fbed6'
p2861
sI2860
S'a663d319369b4440d88c632d121fee83'
p2862
sI2861
S'9319fcefef4c46f05ee84e13f48b1751'
p2863
sI2862
S'f343ac1a649ec733b717010b42dfbe52'
p2864
sI2863
S'b0f19a521e60ec72decd0620819fbed6'
p2865
sI2864
S'b1fb9c115485587e4fc3ac72aef2b118'
p2866
sI2865
S'dcc318bcb4a4036655a0843b4fe7942e'
p2867
sI2866
S'ceefd2f3c96696ad321fea97bd94a930'
p2868
sI2867
S'58d3c44e5215926336e051691a68a0f9'
p2869
sI2868
S'961baca73e7bcaa813ddb82c911af5ae'
p2870
sI2869
S'c21bc840cbe8b66eaa21f5ee89014837'
p2871
sI2870
S'c7f633833deb7757b7d9ddf3d8fa3180'
p2872
sI2871
S'b1fb9c115485587e4fc3ac72aef2b118'
p2873
sI2872
S'c2ec79a92ef680fa66bf2e0f6b028d0b'
p2874
sI2873
S'c21bc840cbe8b66eaa21f5ee89014837'
p2875
sI2874
S'c21bc840cbe8b66eaa21f5ee89014837'
p2876
sI2875
S'dcc318bcb4a4036655a0843b4fe7942e'
p2877
sI2876
S'ccfb4199a0c39b110275c2e5d719e111'
p2878
sI2877
S'dcc318bcb4a4036655a0843b4fe7942e'
p2879
sI2878
S'c21bc840cbe8b66eaa21f5ee89014837'
p2880
sI2879
S'b0f19a521e60ec72decd0620819fbed6'
p2881
sI2880
S'c2ec79a92ef680fa66bf2e0f6b028d0b'
p2882
sI2881
S'2d62d55be4b8cee432ff50fcc58f7c0f'
p2883
sI2882
S'e6818b7c171928daa79522a08106d7e8'
p2884
sI2883
S'a663d319369b4440d88c632d121fee83'
p2885
sI2884
S'ceefd2f3c96696ad321fea97bd94a930'
p2886
sI2885
S'dcc318bcb4a4036655a0843b4fe7942e'
p2887
sI2886
S'7b084b261fdcb58481d1cef12a46f0da'
p2888
sI2887
S'a663d319369b4440d88c632d121fee83'
p2889
sI2888
S'dcc318bcb4a4036655a0843b4fe7942e'
p2890
sI2889
S'a663d319369b4440d88c632d121fee83'
p2891
sI2890
S'b0f19a521e60ec72decd0620819fbed6'
p2892
sI2891
S'e6818b7c171928daa79522a08106d7e8'
p2893
sI2892
S'8fcb64811fd61f1c81c31cd3197f4b6c'
p2894
sI2893
S'5e51d4e322ad30dc81af9af8e94dda12'
p2895
sI2894
S'7b084b261fdcb58481d1cef12a46f0da'
p2896
sI2895
S'e9a166e354f57ce68da7aa5baed2875d'
p2897
sI2896
S'dbf3cb02269e7d4aaecce7fdd6c2bd8e'
p2898
sI2897
S'bfce6ae57311e3589133b9f7b0fddd2e'
p2899
sI2898
S'33854509cd2f5c3e112ae3ab148bc35c'
p2900
sI2899
S'9319fcefef4c46f05ee84e13f48b1751'
p2901
sI2900
S'7640d65e4b2ed645cac2939a03e7fdbe'
p2902
sI2901
S'ccfb4199a0c39b110275c2e5d719e111'
p2903
sI2902
S'33854509cd2f5c3e112ae3ab148bc35c'
p2904
sI2903
S'c2d154a5187ea776fa043ba05e609683'
p2905
sI2904
S'ceefd2f3c96696ad321fea97bd94a930'
p2906
sI2905
S'8fcb64811fd61f1c81c31cd3197f4b6c'
p2907
sI2906
S'ccfb4199a0c39b110275c2e5d719e111'
p2908
sI2907
S'8fcb64811fd61f1c81c31cd3197f4b6c'
p2909
sI2908
S'b1fb9c115485587e4fc3ac72aef2b118'
p2910
sI2909
S'b0f19a521e60ec72decd0620819fbed6'
p2911
sI2910
S'202bdeec2765bff6eb0d815fd8a120ec'
p2912
sI2911
S'c7f633833deb7757b7d9ddf3d8fa3180'
p2913
sI2912
S'33854509cd2f5c3e112ae3ab148bc35c'
p2914
sI2913
S'58d3c44e5215926336e051691a68a0f9'
p2915
sI2914
S'd3d955da016663c391cd6fc52fba0c8a'
p2916
sI2915
S'c7f633833deb7757b7d9ddf3d8fa3180'
p2917
sI2916
S'5f004dfb633bb6ce85930d48aa63eb33'
p2918
sI2917
S'a679f7ede37b1a73af88c572c8bc2de8'
p2919
sI2918
S'b0f19a521e60ec72decd0620819fbed6'
p2920
sI2919
S'b1fb9c115485587e4fc3ac72aef2b118'
p2921
sI2920
S'202bdeec2765bff6eb0d815fd8a120ec'
p2922
sI2921
S'b1fb9c115485587e4fc3ac72aef2b118'
p2923
sI2922
S'c7f633833deb7757b7d9ddf3d8fa3180'
p2924
sI2923
S'b0f19a521e60ec72decd0620819fbed6'
p2925
sI2924
S'ccfb4199a0c39b110275c2e5d719e111'
p2926
sI2925
S'c7f633833deb7757b7d9ddf3d8fa3180'
p2927
sI2926
S'dbf3cb02269e7d4aaecce7fdd6c2bd8e'
p2928
sI2927
S'0bada0c8f61a201a18bf4075141375d2'
p2929
sI2928
S'33854509cd2f5c3e112ae3ab148bc35c'
p2930
sI2929
S'f7d8ae458eff12489df5d950117ef847'
p2931
sI2930
S'a5699f2b94f800b4b7d07dfc1c584edc'
p2932
sI2931
S'b1fb9c115485587e4fc3ac72aef2b118'
p2933
sI2932
S'c2ec79a92ef680fa66bf2e0f6b028d0b'
p2934
sI2933
S'255a34d27511e4428a9b98d4ecab828d'
p2935
sI2934
S'c21bc840cbe8b66eaa21f5ee89014837'
p2936
sI2935
S'b0f19a521e60ec72decd0620819fbed6'
p2937
sI2936
S'2d62d55be4b8cee432ff50fcc58f7c0f'
p2938
sI2937
S'ed9d28f8b48cbbc22905eb0e4939a971'
p2939
sI2938
S'a663d319369b4440d88c632d121fee83'
p2940
sI2939
S'81d84246a74d608f3ee63a106cbb043b'
p2941
sI2940
S'fd0de6977f28814aed2373bdad80f25f'
p2942
sI2941
S'255a34d27511e4428a9b98d4ecab828d'
p2943
sI2942
S'c21bc840cbe8b66eaa21f5ee89014837'
p2944
sI2943
S'7b084b261fdcb58481d1cef12a46f0da'
p2945
sI2944
S'255a34d27511e4428a9b98d4ecab828d'
p2946
sI2945
S'7640d65e4b2ed645cac2939a03e7fdbe'
p2947
sI2946
S'ed9d28f8b48cbbc22905eb0e4939a971'
p2948
sI2947
S'a663d319369b4440d88c632d121fee83'
p2949
sI2948
S'ed9d28f8b48cbbc22905eb0e4939a971'
p2950
sI2949
S'a663d319369b4440d88c632d121fee83'
p2951
sI2950
S'0bada0c8f61a201a18bf4075141375d2'
p2952
sI2951
S'10be300cc18fb4157cc460ebf0ff5a80'
p2953
sI2952
S'a663d319369b4440d88c632d121fee83'
p2954
sI2953
S'9319fcefef4c46f05ee84e13f48b1751'
p2955
sI2954
S'a663d319369b4440d88c632d121fee83'
p2956
sI2955
S'9319fcefef4c46f05ee84e13f48b1751'
p2957
sI2956
S'a679f7ede37b1a73af88c572c8bc2de8'
p2958
sI2957
S'1c674f4da09702648fa1de63230a68de'
p2959
sI2958
S'c2ec79a92ef680fa66bf2e0f6b028d0b'
p2960
sI2959
S'81d84246a74d608f3ee63a106cbb043b'
p2961
sI2960
S'a679f7ede37b1a73af88c572c8bc2de8'
p2962
sI2961
S'dcc318bcb4a4036655a0843b4fe7942e'
p2963
sI2962
S'a679f7ede37b1a73af88c572c8bc2de8'
p2964
sI2963
S'4738796f60291f044124b54757b0cc1f'
p2965
sI2964
S'81d84246a74d608f3ee63a106cbb043b'
p2966
sI2965
S'b1fb9c115485587e4fc3ac72aef2b118'
p2967
sI2966
S'c2d154a5187ea776fa043ba05e609683'
p2968
sI2967
S'7eb4fded0b399f6375b0d7f470363ea4'
p2969
sI2968
S'c2ec79a92ef680fa66bf2e0f6b028d0b'
p2970
sI2969
S'c2ec79a92ef680fa66bf2e0f6b028d0b'
p2971
sI2970
S'a663d319369b4440d88c632d121fee83'
p2972
sI2971
S'0bada0c8f61a201a18bf4075141375d2'
p2973
sI2972
S'b1fb9c115485587e4fc3ac72aef2b118'
p2974
sI2973
S'c2ec79a92ef680fa66bf2e0f6b028d0b'
p2975
sI2974
S'dbf3cb02269e7d4aaecce7fdd6c2bd8e'
p2976
sI2975
S'1c674f4da09702648fa1de63230a68de'
p2977
sI2976
S'7b084b261fdcb58481d1cef12a46f0da'
p2978
sI2977
S'a663d319369b4440d88c632d121fee83'
p2979
sI2978
S'7eb4fded0b399f6375b0d7f470363ea4'
p2980
sI2979
S'0bada0c8f61a201a18bf4075141375d2'
p2981
sI2980
S'a663d319369b4440d88c632d121fee83'
p2982
sI2981
S'f7d8ae458eff12489df5d950117ef847'
p2983
sI2982
S'c2ec79a92ef680fa66bf2e0f6b028d0b'
p2984
sI2983
S'c2ec79a92ef680fa66bf2e0f6b028d0b'
p2985
sI2984
S'a663d319369b4440d88c632d121fee83'
p2986
sI2985
S'7b7b5bf5b8dea5c03eaff88cde5dd145'
p2987
sI2986
S'b1fb9c115485587e4fc3ac72aef2b118'
p2988
sI2987
S'c2ec79a92ef680fa66bf2e0f6b028d0b'
p2989
sI2988
S'7eb4fded0b399f6375b0d7f470363ea4'
p2990
sI2989
S'b0f19a521e60ec72decd0620819fbed6'
p2991
sI2990
S'c2ec79a92ef680fa66bf2e0f6b028d0b'
p2992
sI2991
S'9319fcefef4c46f05ee84e13f48b1751'
p2993
sI2992
S'b1fb9c115485587e4fc3ac72aef2b118'
p2994
sI2993
S'7eb4fded0b399f6375b0d7f470363ea4'
p2995
sI2994
S'ccfb4199a0c39b110275c2e5d719e111'
p2996
sI2995
S'b1fb9c115485587e4fc3ac72aef2b118'
p2997
sI2996
S'33854509cd2f5c3e112ae3ab148bc35c'
p2998
sI2997
S'0bada0c8f61a201a18bf4075141375d2'
p2999
sI2998
S'dbf3cb02269e7d4aaecce7fdd6c2bd8e'
p3000
sI2999
S'ccfb4199a0c39b110275c2e5d719e111'
p3001
sI3000
S'b1fb9c115485587e4fc3ac72aef2b118'
p3002
sI3001
S'c2ec79a92ef680fa66bf2e0f6b028d0b'
p3003
sI3002
S'c2ec79a92ef680fa66bf2e0f6b028d0b'
p3004
sI3003
S'c21bc840cbe8b66eaa21f5ee89014837'
p3005
sI3004
S'9319fcefef4c46f05ee84e13f48b1751'
p3006
sI3005
S'0bada0c8f61a201a18bf4075141375d2'
p3007
sI3006
S'c2ec79a92ef680fa66bf2e0f6b028d0b'
p3008
sI3007
S'0bada0c8f61a201a18bf4075141375d2'
p3009
sI3008
S'e6818b7c171928daa79522a08106d7e8'
p3010
sI3009
S'ed9d28f8b48cbbc22905eb0e4939a971'
p3011
sI3010
S'c2ec79a92ef680fa66bf2e0f6b028d0b'
p3012
sI3011
S'7eb4fded0b399f6375b0d7f470363ea4'
p3013
sI3012
S'c21bc840cbe8b66eaa21f5ee89014837'
p3014
sI3013
S'c2ec79a92ef680fa66bf2e0f6b028d0b'
p3015
sI3014
S'c2ec79a92ef680fa66bf2e0f6b028d0b'
p3016
sI3015
S'7eb4fded0b399f6375b0d7f470363ea4'
p3017
sI3016
S'c21bc840cbe8b66eaa21f5ee89014837'
p3018
sI3017
S'7eb4fded0b399f6375b0d7f470363ea4'
p3019
sI3018
S'9319fcefef4c46f05ee84e13f48b1751'
p3020
sI3019
S'c21bc840cbe8b66eaa21f5ee89014837'
p3021
sI3020
S'c2ec79a92ef680fa66bf2e0f6b028d0b'
p3022
sI3021
S'33854509cd2f5c3e112ae3ab148bc35c'
p3023
sI3022
S'7b084b261fdcb58481d1cef12a46f0da'
p3024
sI3023
S'7eb4fded0b399f6375b0d7f470363ea4'
p3025
sI3024
S'33854509cd2f5c3e112ae3ab148bc35c'
p3026
sI3025
S'0bada0c8f61a201a18bf4075141375d2'
p3027
sI3026
S'666d73877301ccb1b24fe70823562513'
p3028
sI3027
S'ccfb4199a0c39b110275c2e5d719e111'
p3029
sI3028
S'9319fcefef4c46f05ee84e13f48b1751'
p3030
sI3029
S'ccfb4199a0c39b110275c2e5d719e111'
p3031
sI3030
S'c2ec79a92ef680fa66bf2e0f6b028d0b'
p3032
sI3031
S'7b084b261fdcb58481d1cef12a46f0da'
p3033
sI3032
S'58d3c44e5215926336e051691a68a0f9'
p3034
sI3033
S'0bada0c8f61a201a18bf4075141375d2'
p3035
sI3034
S'ccfb4199a0c39b110275c2e5d719e111'
p3036
sI3035
S'c2ec79a92ef680fa66bf2e0f6b028d0b'
p3037
sI3036
S'7b084b261fdcb58481d1cef12a46f0da'
p3038
sI3037
S'c2ec79a92ef680fa66bf2e0f6b028d0b'
p3039
sI3038
S'c2ec79a92ef680fa66bf2e0f6b028d0b'
p3040
sI3039
S'81d84246a74d608f3ee63a106cbb043b'
p3041
sI3040
S'4738796f60291f044124b54757b0cc1f'
p3042
sI3041
S'20c8b3685fc5c14db66a5e24736b1b66'
p3043
sI3042
S'9319fcefef4c46f05ee84e13f48b1751'
p3044
sI3043
S'b0f19a521e60ec72decd0620819fbed6'
p3045
sI3044
S'ed9d28f8b48cbbc22905eb0e4939a971'
p3046
sI3045
S'a663d319369b4440d88c632d121fee83'
p3047
sI3046
S'ed9d28f8b48cbbc22905eb0e4939a971'
p3048
sI3047
S'dbf3cb02269e7d4aaecce7fdd6c2bd8e'
p3049
sI3048
S'9319fcefef4c46f05ee84e13f48b1751'
p3050
sI3049
S'dbf3cb02269e7d4aaecce7fdd6c2bd8e'
p3051
sI3050
S'5e51d4e322ad30dc81af9af8e94dda12'
p3052
sI3051
S'7eb4fded0b399f6375b0d7f470363ea4'
p3053
sI3052
S'c2ec79a92ef680fa66bf2e0f6b028d0b'
p3054
sI3053
S'1c674f4da09702648fa1de63230a68de'
p3055
sI3054
S'f7d8ae458eff12489df5d950117ef847'
p3056
sI3055
S'a679f7ede37b1a73af88c572c8bc2de8'
p3057
sI3056
S'ccfb4199a0c39b110275c2e5d719e111'
p3058
sI3057
S'10be300cc18fb4157cc460ebf0ff5a80'
p3059
sI3058
S'ccfb4199a0c39b110275c2e5d719e111'
p3060
sI3059
S'a679f7ede37b1a73af88c572c8bc2de8'
p3061
sI3060
S'c2ec79a92ef680fa66bf2e0f6b028d0b'
p3062
sI3061
S'2d62d55be4b8cee432ff50fcc58f7c0f'
p3063
sI3062
S'b1fb9c115485587e4fc3ac72aef2b118'
p3064
sI3063
S'7eb4fded0b399f6375b0d7f470363ea4'
p3065
sI3064
S'b1fb9c115485587e4fc3ac72aef2b118'
p3066
sI3065
S'fd0de6977f28814aed2373bdad80f25f'
p3067
sI3066
S'c21bc840cbe8b66eaa21f5ee89014837'
p3068
sI3067
S'dbf3cb02269e7d4aaecce7fdd6c2bd8e'
p3069
sI3068
S'7eb4fded0b399f6375b0d7f470363ea4'
p3070
sI3069
S'0bada0c8f61a201a18bf4075141375d2'
p3071
sI3070
S'7eb4fded0b399f6375b0d7f470363ea4'
p3072
sI3071
S'c21bc840cbe8b66eaa21f5ee89014837'
p3073
sI3072
S'7eb4fded0b399f6375b0d7f470363ea4'
p3074
sI3073
S'ae06cc39c0396c461b6ee0230c1419cc'
p3075
sI3074
S'7eb4fded0b399f6375b0d7f470363ea4'
p3076
sI3075
S'7eb4fded0b399f6375b0d7f470363ea4'
p3077
sI3076
S'c21bc840cbe8b66eaa21f5ee89014837'
p3078
sI3077
S'7eb4fded0b399f6375b0d7f470363ea4'
p3079
sI3078
S'c21bc840cbe8b66eaa21f5ee89014837'
p3080
sI3079
S'c21bc840cbe8b66eaa21f5ee89014837'
p3081
sI3080
S'ccfb4199a0c39b110275c2e5d719e111'
p3082
sI3081
S'7eb4fded0b399f6375b0d7f470363ea4'
p3083
sI3082
S'10be300cc18fb4157cc460ebf0ff5a80'
p3084
sI3083
S'666d73877301ccb1b24fe70823562513'
p3085
sI3084
S'c21bc840cbe8b66eaa21f5ee89014837'
p3086
sI3085
S'7eb4fded0b399f6375b0d7f470363ea4'
p3087
sI3086
S'7eb4fded0b399f6375b0d7f470363ea4'
p3088
sI3087
S'ccfb4199a0c39b110275c2e5d719e111'
p3089
sI3088
S'10be300cc18fb4157cc460ebf0ff5a80'
p3090
sI3089
S'a679f7ede37b1a73af88c572c8bc2de8'
p3091
sI3090
S'ccfb4199a0c39b110275c2e5d719e111'
p3092
sI3091
S'7eb4fded0b399f6375b0d7f470363ea4'
p3093
sI3092
S'7eb4fded0b399f6375b0d7f470363ea4'
p3094
sI3093
S'9319fcefef4c46f05ee84e13f48b1751'
p3095
sI3094
S'a679f7ede37b1a73af88c572c8bc2de8'
p3096
sI3095
S'8fcb64811fd61f1c81c31cd3197f4b6c'
p3097
sI3096
S'b0f19a521e60ec72decd0620819fbed6'
p3098
sI3097
S'b1fb9c115485587e4fc3ac72aef2b118'
p3099
sI3098
S'b1fb9c115485587e4fc3ac72aef2b118'
p3100
sI3099
S'b0f19a521e60ec72decd0620819fbed6'
p3101
sI3100
S'b1fb9c115485587e4fc3ac72aef2b118'
p3102
sI3101
S'b1fb9c115485587e4fc3ac72aef2b118'
p3103
sI3102
S'b1fb9c115485587e4fc3ac72aef2b118'
p3104
sI3103
S'dbf3cb02269e7d4aaecce7fdd6c2bd8e'
p3105
sI3104
S'84d409794875b336637ae806102bf883'
p3106
sI3105
S'84d409794875b336637ae806102bf883'
p3107
sI3106
S'7eb4fded0b399f6375b0d7f470363ea4'
p3108
sI3107
S'e6818b7c171928daa79522a08106d7e8'
p3109
sI3108
S'b1fb9c115485587e4fc3ac72aef2b118'
p3110
sI3109
S'0bada0c8f61a201a18bf4075141375d2'
p3111
sI3110
S'7b084b261fdcb58481d1cef12a46f0da'
p3112
sI3111
S'7eb4fded0b399f6375b0d7f470363ea4'
p3113
sI3112
S'7eb4fded0b399f6375b0d7f470363ea4'
p3114
sI3113
S'a663d319369b4440d88c632d121fee83'
p3115
sI3114
S'b0f19a521e60ec72decd0620819fbed6'
p3116
sI3115
S'fd0de6977f28814aed2373bdad80f25f'
p3117
sI3116
S'a663d319369b4440d88c632d121fee83'
p3118
sI3117
S'e9a166e354f57ce68da7aa5baed2875d'
p3119
sI3118
S'ceefd2f3c96696ad321fea97bd94a930'
p3120
sI3119
S'c7f633833deb7757b7d9ddf3d8fa3180'
p3121
sI3120
S'7b084b261fdcb58481d1cef12a46f0da'
p3122
sI3121
S'7640d65e4b2ed645cac2939a03e7fdbe'
p3123
sI3122
S'c21bc840cbe8b66eaa21f5ee89014837'
p3124
sI3123
S'7eb4fded0b399f6375b0d7f470363ea4'
p3125
sI3124
S'7eb4fded0b399f6375b0d7f470363ea4'
p3126
sI3125
S'b1fb9c115485587e4fc3ac72aef2b118'
p3127
sI3126
S'c21bc840cbe8b66eaa21f5ee89014837'
p3128
sI3127
S'c21bc840cbe8b66eaa21f5ee89014837'
p3129
sI3128
S'7eb4fded0b399f6375b0d7f470363ea4'
p3130
sI3129
S'10be300cc18fb4157cc460ebf0ff5a80'
p3131
sI3130
S'b2497d6fdbbb6d1d7fe204b0fd06cff7'
p3132
sI3131
S'7640d65e4b2ed645cac2939a03e7fdbe'
p3133
sI3132
S'ccfb4199a0c39b110275c2e5d719e111'
p3134
sI3133
S'b1fb9c115485587e4fc3ac72aef2b118'
p3135
sI3134
S'ceefd2f3c96696ad321fea97bd94a930'
p3136
sI3135
S'9319fcefef4c46f05ee84e13f48b1751'
p3137
sI3136
S'dcc318bcb4a4036655a0843b4fe7942e'
p3138
sI3137
S'7eb4fded0b399f6375b0d7f470363ea4'
p3139
sI3138
S'0bada0c8f61a201a18bf4075141375d2'
p3140
sI3139
S'b1fb9c115485587e4fc3ac72aef2b118'
p3141
sI3140
S'ccfb4199a0c39b110275c2e5d719e111'
p3142
sI3141
S'dbf3cb02269e7d4aaecce7fdd6c2bd8e'
p3143
sI3142
S'7eb4fded0b399f6375b0d7f470363ea4'
p3144
sI3143
S'ed9d28f8b48cbbc22905eb0e4939a971'
p3145
sI3144
S'b0f19a521e60ec72decd0620819fbed6'
p3146
sI3145
S'7eb4fded0b399f6375b0d7f470363ea4'
p3147
sI3146
S'7eb4fded0b399f6375b0d7f470363ea4'
p3148
sI3147
S'dbf3cb02269e7d4aaecce7fdd6c2bd8e'
p3149
sI3148
S'b1fb9c115485587e4fc3ac72aef2b118'
p3150
sI3149
S'7eb4fded0b399f6375b0d7f470363ea4'
p3151
sI3150
S'7eb4fded0b399f6375b0d7f470363ea4'
p3152
sI3151
S'b1fb9c115485587e4fc3ac72aef2b118'
p3153
sI3152
S'7eb4fded0b399f6375b0d7f470363ea4'
p3154
sI3153
S'7eb4fded0b399f6375b0d7f470363ea4'
p3155
sI3154
S'fd0de6977f28814aed2373bdad80f25f'
p3156
sI3155
S'20c8b3685fc5c14db66a5e24736b1b66'
p3157
sI3156
S'b1fb9c115485587e4fc3ac72aef2b118'
p3158
sI3157
S'dbf3cb02269e7d4aaecce7fdd6c2bd8e'
p3159
sI3158
S'b1fb9c115485587e4fc3ac72aef2b118'
p3160
sI3159
S'c21bc840cbe8b66eaa21f5ee89014837'
p3161
sI3160
S'ccfb4199a0c39b110275c2e5d719e111'
p3162
sI3161
S'c7f633833deb7757b7d9ddf3d8fa3180'
p3163
sI3162
S'ed9d28f8b48cbbc22905eb0e4939a971'
p3164
sI3163
S'20c8b3685fc5c14db66a5e24736b1b66'
p3165
sI3164
S'b1fb9c115485587e4fc3ac72aef2b118'
p3166
sI3165
S'b1fb9c115485587e4fc3ac72aef2b118'
p3167
sI3166
S'ed9d28f8b48cbbc22905eb0e4939a971'
p3168
sI3167
S'b1fb9c115485587e4fc3ac72aef2b118'
p3169
sI3168
S'e6818b7c171928daa79522a08106d7e8'
p3170
sI3169
S'a663d319369b4440d88c632d121fee83'
p3171
sI3170
S'c7f633833deb7757b7d9ddf3d8fa3180'
p3172
sI3171
S'ed9d28f8b48cbbc22905eb0e4939a971'
p3173
sI3172
S'b13f88228c65c83a5f6d245ac363ba94'
p3174
sI3173
S'ed9d28f8b48cbbc22905eb0e4939a971'
p3175
sI3174
S'ed9d28f8b48cbbc22905eb0e4939a971'
p3176
sI3175
S'ceefd2f3c96696ad321fea97bd94a930'
p3177
sI3176
S'c7f633833deb7757b7d9ddf3d8fa3180'
p3178
sI3177
S'ed9d28f8b48cbbc22905eb0e4939a971'
p3179
sI3178
S'5e51d4e322ad30dc81af9af8e94dda12'
p3180
sI3179
S'dbf3cb02269e7d4aaecce7fdd6c2bd8e'
p3181
sI3180
S'b1fb9c115485587e4fc3ac72aef2b118'
p3182
sI3181
S'9319fcefef4c46f05ee84e13f48b1751'
p3183
sI3182
S'b1fb9c115485587e4fc3ac72aef2b118'
p3184
sI3183
S'ed9d28f8b48cbbc22905eb0e4939a971'
p3185
sI3184
S'dbf3cb02269e7d4aaecce7fdd6c2bd8e'
p3186
sI3185
S'0bada0c8f61a201a18bf4075141375d2'
p3187
sI3186
S'b13f88228c65c83a5f6d245ac363ba94'
p3188
sI3187
S'dbf3cb02269e7d4aaecce7fdd6c2bd8e'
p3189
sI3188
S'e6818b7c171928daa79522a08106d7e8'
p3190
sI3189
S'9319fcefef4c46f05ee84e13f48b1751'
p3191
sI3190
S'0bada0c8f61a201a18bf4075141375d2'
p3192
sI3191
S'0bada0c8f61a201a18bf4075141375d2'
p3193
sI3192
S'255a34d27511e4428a9b98d4ecab828d'
p3194
sI3193
S'c2ec79a92ef680fa66bf2e0f6b028d0b'
p3195
sI3194
S'b13f88228c65c83a5f6d245ac363ba94'
p3196
sI3195
S'a679f7ede37b1a73af88c572c8bc2de8'
p3197
sI3196
S'0bada0c8f61a201a18bf4075141375d2'
p3198
sI3197
S'ed9d28f8b48cbbc22905eb0e4939a971'
p3199
sI3198
S'8fcb64811fd61f1c81c31cd3197f4b6c'
p3200
sI3199
S'81d84246a74d608f3ee63a106cbb043b'
p3201
sI3200
S'e9a166e354f57ce68da7aa5baed2875d'
p3202
sI3201
S'8fcb64811fd61f1c81c31cd3197f4b6c'
p3203
sI3202
S'b13f88228c65c83a5f6d245ac363ba94'
p3204
sI3203
S'b1fb9c115485587e4fc3ac72aef2b118'
p3205
sI3204
S'0bada0c8f61a201a18bf4075141375d2'
p3206
sI3205
S'ed9d28f8b48cbbc22905eb0e4939a971'
p3207
sI3206
S'3e1d397a624df1500a0a1dd474f14017'
p3208
sI3207
S'b1fb9c115485587e4fc3ac72aef2b118'
p3209
sI3208
S'b1fb9c115485587e4fc3ac72aef2b118'
p3210
sI3209
S'5e51d4e322ad30dc81af9af8e94dda12'
p3211
sI3210
S'7eb4fded0b399f6375b0d7f470363ea4'
p3212
sI3211
S'b0f19a521e60ec72decd0620819fbed6'
p3213
sI3212
S'5e51d4e322ad30dc81af9af8e94dda12'
p3214
sI3213
S'b1fb9c115485587e4fc3ac72aef2b118'
p3215
sI3214
S'7eb4fded0b399f6375b0d7f470363ea4'
p3216
sI3215
S'4738796f60291f044124b54757b0cc1f'
p3217
sI3216
S'ed9d28f8b48cbbc22905eb0e4939a971'
p3218
sI3217
S'a5699f2b94f800b4b7d07dfc1c584edc'
p3219
sI3218
S'dbf3cb02269e7d4aaecce7fdd6c2bd8e'
p3220
sI3219
S'3e1d397a624df1500a0a1dd474f14017'
p3221
sI3220
S'7b084b261fdcb58481d1cef12a46f0da'
p3222
sI3221
S'e6818b7c171928daa79522a08106d7e8'
p3223
sI3222
S'b13f88228c65c83a5f6d245ac363ba94'
p3224
sI3223
S'b13f88228c65c83a5f6d245ac363ba94'
p3225
sI3224
S'7b084b261fdcb58481d1cef12a46f0da'
p3226
sI3225
S'7eb4fded0b399f6375b0d7f470363ea4'
p3227
sI3226
S'dbf3cb02269e7d4aaecce7fdd6c2bd8e'
p3228
sI3227
S'10be300cc18fb4157cc460ebf0ff5a80'
p3229
sI3228
S'f7d8ae458eff12489df5d950117ef847'
p3230
sI3229
S'58d3c44e5215926336e051691a68a0f9'
p3231
sI3230
S'f7d8ae458eff12489df5d950117ef847'
p3232
sI3231
S'c2ec79a92ef680fa66bf2e0f6b028d0b'
p3233
sI3232
S'e6818b7c171928daa79522a08106d7e8'
p3234
sI3233
S'b13f88228c65c83a5f6d245ac363ba94'
p3235
sI3234
S'7bfd9b4735c229e35f886e86f49c7603'
p3236
sI3235
S'c7f633833deb7757b7d9ddf3d8fa3180'
p3237
sI3236
S'f7d8ae458eff12489df5d950117ef847'
p3238
sI3237
S'dbf3cb02269e7d4aaecce7fdd6c2bd8e'
p3239
sI3238
S'f7d8ae458eff12489df5d950117ef847'
p3240
sI3239
S'1211e6133c77d1a8eccb71afd229574b'
p3241
sI3240
S'7bfd9b4735c229e35f886e86f49c7603'
p3242
sI3241
S'1211e6133c77d1a8eccb71afd229574b'
p3243
sI3242
S'c7f633833deb7757b7d9ddf3d8fa3180'
p3244
sI3243
S'81d84246a74d608f3ee63a106cbb043b'
p3245
sI3244
S'c2ec79a92ef680fa66bf2e0f6b028d0b'
p3246
sI3245
S'26216e7c7acc8f265ebe3140ccdebf50'
p3247
sI3246
S'e9a166e354f57ce68da7aa5baed2875d'
p3248
sI3247
S'f7d8ae458eff12489df5d950117ef847'
p3249
sI3248
S'9319fcefef4c46f05ee84e13f48b1751'
p3250
sI3249
S'c7f633833deb7757b7d9ddf3d8fa3180'
p3251
sI3250
S'9319fcefef4c46f05ee84e13f48b1751'
p3252
sI3251
S'c7f633833deb7757b7d9ddf3d8fa3180'
p3253
sI3252
S'c7f633833deb7757b7d9ddf3d8fa3180'
p3254
sI3253
S'dbf3cb02269e7d4aaecce7fdd6c2bd8e'
p3255
sI3254
S'10be300cc18fb4157cc460ebf0ff5a80'
p3256
sI3255
S'c7f633833deb7757b7d9ddf3d8fa3180'
p3257
sI3256
S'e6818b7c171928daa79522a08106d7e8'
p3258
sI3257
S'e6818b7c171928daa79522a08106d7e8'
p3259
sI3258
S'404ed461b4934a8d9cebb88b79c96763'
p3260
sI3259
S'6b7879b5036f18752ff29f13fa20e976'
p3261
sI3260
S'7640d65e4b2ed645cac2939a03e7fdbe'
p3262
sI3261
S'ccfb4199a0c39b110275c2e5d719e111'
p3263
sI3262
S'f7d8ae458eff12489df5d950117ef847'
p3264
sI3263
S'a663d319369b4440d88c632d121fee83'
p3265
sI3264
S'c2d154a5187ea776fa043ba05e609683'
p3266
sI3265
S'd3fabf6946d59b69ce52039159451465'
p3267
sI3266
S'ae06cc39c0396c461b6ee0230c1419cc'
p3268
sI3267
S'ed9d28f8b48cbbc22905eb0e4939a971'
p3269
sI3268
S'a679f7ede37b1a73af88c572c8bc2de8'
p3270
sI3269
S'58d3c44e5215926336e051691a68a0f9'
p3271
sI3270
S'3a42b0c12030c5e8c451469c76c773b6'
p3272
sI3271
S'20c8b3685fc5c14db66a5e24736b1b66'
p3273
sI3272
S'dd437ad97079318550a4fa2bd5b987fe'
p3274
sI3273
S'7b084b261fdcb58481d1cef12a46f0da'
p3275
sI3274
S'c7f633833deb7757b7d9ddf3d8fa3180'
p3276
sI3275
S'7640d65e4b2ed645cac2939a03e7fdbe'
p3277
sI3276
S'e6818b7c171928daa79522a08106d7e8'
p3278
sI3277
S'58d3c44e5215926336e051691a68a0f9'
p3279
sI3278
S'7640d65e4b2ed645cac2939a03e7fdbe'
p3280
sI3279
S'c7f633833deb7757b7d9ddf3d8fa3180'
p3281
sI3280
S'b13f88228c65c83a5f6d245ac363ba94'
p3282
sI3281
S'7640d65e4b2ed645cac2939a03e7fdbe'
p3283
sI3282
S'c2ec79a92ef680fa66bf2e0f6b028d0b'
p3284
sI3283
S'7bfd9b4735c229e35f886e86f49c7603'
p3285
sI3284
S'c21bc840cbe8b66eaa21f5ee89014837'
p3286
sI3285
S'dd437ad97079318550a4fa2bd5b987fe'
p3287
sI3286
S'3a42b0c12030c5e8c451469c76c773b6'
p3288
sI3287
S'3a42b0c12030c5e8c451469c76c773b6'
p3289
sI3288
S'd3fabf6946d59b69ce52039159451465'
p3290
sI3289
S'3a42b0c12030c5e8c451469c76c773b6'
p3291
sI3290
S'9319fcefef4c46f05ee84e13f48b1751'
p3292
sI3291
S'f7d8ae458eff12489df5d950117ef847'
p3293
sI3292
S'dbf3cb02269e7d4aaecce7fdd6c2bd8e'
p3294
sI3293
S'fd0de6977f28814aed2373bdad80f25f'
p3295
sI3294
S'f7d8ae458eff12489df5d950117ef847'
p3296
sI3295
S'3a42b0c12030c5e8c451469c76c773b6'
p3297
sI3296
S'b7f951bc04a56c5f4c4fe8aed6c5b2b9'
p3298
sI3297
S'c7f633833deb7757b7d9ddf3d8fa3180'
p3299
sI3298
S'b7f951bc04a56c5f4c4fe8aed6c5b2b9'
p3300
sI3299
S'dbf3cb02269e7d4aaecce7fdd6c2bd8e'
p3301
sI3300
S'202bdeec2765bff6eb0d815fd8a120ec'
p3302
sI3301
S'fd0de6977f28814aed2373bdad80f25f'
p3303
sI3302
S'b1fb9c115485587e4fc3ac72aef2b118'
p3304
sI3303
S'b13f88228c65c83a5f6d245ac363ba94'
p3305
sI3304
S'e6818b7c171928daa79522a08106d7e8'
p3306
sI3305
S'a663d319369b4440d88c632d121fee83'
p3307
sI3306
S'b13f88228c65c83a5f6d245ac363ba94'
p3308
sI3307
S'c2ec79a92ef680fa66bf2e0f6b028d0b'
p3309
sI3308
S'81d84246a74d608f3ee63a106cbb043b'
p3310
sI3309
S'81d84246a74d608f3ee63a106cbb043b'
p3311
sI3310
S'7bfd9b4735c229e35f886e86f49c7603'
p3312
sI3311
S'a663d319369b4440d88c632d121fee83'
p3313
sI3312
S'a663d319369b4440d88c632d121fee83'
p3314
sI3313
S'81d84246a74d608f3ee63a106cbb043b'
p3315
sI3314
S'ccfb4199a0c39b110275c2e5d719e111'
p3316
sI3315
S'c7f633833deb7757b7d9ddf3d8fa3180'
p3317
sI3316
S'7b084b261fdcb58481d1cef12a46f0da'
p3318
sI3317
S'b1fb9c115485587e4fc3ac72aef2b118'
p3319
sI3318
S'7eb4fded0b399f6375b0d7f470363ea4'
p3320
sI3319
S'e6818b7c171928daa79522a08106d7e8'
p3321
sI3320
S'7eb4fded0b399f6375b0d7f470363ea4'
p3322
sI3321
S'a663d319369b4440d88c632d121fee83'
p3323
sI3322
S'3a42b0c12030c5e8c451469c76c773b6'
p3324
sI3323
S'202bdeec2765bff6eb0d815fd8a120ec'
p3325
sI3324
S'a663d319369b4440d88c632d121fee83'
p3326
sI3325
S'10dfd3222d6abfbbb68f79c829102ea1'
p3327
sI3326
S'7eb4fded0b399f6375b0d7f470363ea4'
p3328
sI3327
S'a679f7ede37b1a73af88c572c8bc2de8'
p3329
sI3328
S'3e1d397a624df1500a0a1dd474f14017'
p3330
sI3329
S'b0f19a521e60ec72decd0620819fbed6'
p3331
sI3330
S'c7f633833deb7757b7d9ddf3d8fa3180'
p3332
sI3331
S'666d73877301ccb1b24fe70823562513'
p3333
sI3332
S'2d62d55be4b8cee432ff50fcc58f7c0f'
p3334
sI3333
S'b7f951bc04a56c5f4c4fe8aed6c5b2b9'
p3335
sI3334
S'7bfd9b4735c229e35f886e86f49c7603'
p3336
sI3335
S'b7f951bc04a56c5f4c4fe8aed6c5b2b9'
p3337
sI3336
S'a679f7ede37b1a73af88c572c8bc2de8'
p3338
sI3337
S'7b084b261fdcb58481d1cef12a46f0da'
p3339
sI3338
S'b7f951bc04a56c5f4c4fe8aed6c5b2b9'
p3340
sI3339
S'b13f88228c65c83a5f6d245ac363ba94'
p3341
sI3340
S'33479bc8c4b5f6aef1c651587ea2baf7'
p3342
sI3341
S'3a42b0c12030c5e8c451469c76c773b6'
p3343
sI3342
S'ed9d28f8b48cbbc22905eb0e4939a971'
p3344
sI3343
S'10dfd3222d6abfbbb68f79c829102ea1'
p3345
sI3344
S'ccfb4199a0c39b110275c2e5d719e111'
p3346
sI3345
S'7eb4fded0b399f6375b0d7f470363ea4'
p3347
sI3346
S'e6818b7c171928daa79522a08106d7e8'
p3348
sI3347
S'2d62d55be4b8cee432ff50fcc58f7c0f'
p3349
sI3348
S'3a42b0c12030c5e8c451469c76c773b6'
p3350
sI3349
S'c7f633833deb7757b7d9ddf3d8fa3180'
p3351
sI3350
S'ccfb4199a0c39b110275c2e5d719e111'
p3352
sI3351
S'7bfd9b4735c229e35f886e86f49c7603'
p3353
sI3352
S'33479bc8c4b5f6aef1c651587ea2baf7'
p3354
sI3353
S'7eb4fded0b399f6375b0d7f470363ea4'
p3355
sI3354
S'dbf3cb02269e7d4aaecce7fdd6c2bd8e'
p3356
sI3355
S'7eb4fded0b399f6375b0d7f470363ea4'
p3357
sI3356
S'f7d8ae458eff12489df5d950117ef847'
p3358
sI3357
S'6327dfcc165a7bd74694521f810a5f29'
p3359
sI3358
S'dcc318bcb4a4036655a0843b4fe7942e'
p3360
sI3359
S'2d62d55be4b8cee432ff50fcc58f7c0f'
p3361
sI3360
S'7eb4fded0b399f6375b0d7f470363ea4'
p3362
sI3361
S'7eb4fded0b399f6375b0d7f470363ea4'
p3363
sI3362
S'a679f7ede37b1a73af88c572c8bc2de8'
p3364
sI3363
S'7eb4fded0b399f6375b0d7f470363ea4'
p3365
sI3364
S'7eb4fded0b399f6375b0d7f470363ea4'
p3366
sI3365
S'7eb4fded0b399f6375b0d7f470363ea4'
p3367
sI3366
S'7eb4fded0b399f6375b0d7f470363ea4'
p3368
sI3367
S'7eb4fded0b399f6375b0d7f470363ea4'
p3369
sI3368
S'7eb4fded0b399f6375b0d7f470363ea4'
p3370
sI3369
S'b7f951bc04a56c5f4c4fe8aed6c5b2b9'
p3371
sI3370
S'7eb4fded0b399f6375b0d7f470363ea4'
p3372
sI3371
S'7eb4fded0b399f6375b0d7f470363ea4'
p3373
sI3372
S'7eb4fded0b399f6375b0d7f470363ea4'
p3374
sI3373
S'c7f633833deb7757b7d9ddf3d8fa3180'
p3375
sI3374
S'7eb4fded0b399f6375b0d7f470363ea4'
p3376
sI3375
S'7eb4fded0b399f6375b0d7f470363ea4'
p3377
sI3376
S'7eb4fded0b399f6375b0d7f470363ea4'
p3378
sI3377
S'c7f633833deb7757b7d9ddf3d8fa3180'
p3379
sI3378
S'7eb4fded0b399f6375b0d7f470363ea4'
p3380
sI3379
S'ceefd2f3c96696ad321fea97bd94a930'
p3381
sI3380
S'a663d319369b4440d88c632d121fee83'
p3382
sI3381
S'7eb4fded0b399f6375b0d7f470363ea4'
p3383
sI3382
S'7b7b5bf5b8dea5c03eaff88cde5dd145'
p3384
sI3383
S'ccfb4199a0c39b110275c2e5d719e111'
p3385
sI3384
S'e9a166e354f57ce68da7aa5baed2875d'
p3386
sI3385
S'7b084b261fdcb58481d1cef12a46f0da'
p3387
sI3386
S'b7f951bc04a56c5f4c4fe8aed6c5b2b9'
p3388
sI3387
S'a663d319369b4440d88c632d121fee83'
p3389
sI3388
S'33479bc8c4b5f6aef1c651587ea2baf7'
p3390
sI3389
S'c7f633833deb7757b7d9ddf3d8fa3180'
p3391
sI3390
S'7b084b261fdcb58481d1cef12a46f0da'
p3392
sI3391
S'3a42b0c12030c5e8c451469c76c773b6'
p3393
sI3392
S'1211e6133c77d1a8eccb71afd229574b'
p3394
sI3393
S'ccfb4199a0c39b110275c2e5d719e111'
p3395
sI3394
S'e9a166e354f57ce68da7aa5baed2875d'
p3396
sI3395
S'81d84246a74d608f3ee63a106cbb043b'
p3397
sI3396
S'b7f951bc04a56c5f4c4fe8aed6c5b2b9'
p3398
sI3397
S'a663d319369b4440d88c632d121fee83'
p3399
sI3398
S'7b084b261fdcb58481d1cef12a46f0da'
p3400
sI3399
S'a679f7ede37b1a73af88c572c8bc2de8'
p3401
sI3400
S'5e51d4e322ad30dc81af9af8e94dda12'
p3402
sI3401
S'b1fb9c115485587e4fc3ac72aef2b118'
p3403
sI3402
S'ed9d28f8b48cbbc22905eb0e4939a971'
p3404
sI3403
S'b0f19a521e60ec72decd0620819fbed6'
p3405
sI3404
S'a5699f2b94f800b4b7d07dfc1c584edc'
p3406
sI3405
S'a663d319369b4440d88c632d121fee83'
p3407
sI3406
S'7eb4fded0b399f6375b0d7f470363ea4'
p3408
sI3407
S'7eb4fded0b399f6375b0d7f470363ea4'
p3409
sI3408
S'7b084b261fdcb58481d1cef12a46f0da'
p3410
sI3409
S'81d84246a74d608f3ee63a106cbb043b'
p3411
sI3410
S'7bfd9b4735c229e35f886e86f49c7603'
p3412
sI3411
S'b7f951bc04a56c5f4c4fe8aed6c5b2b9'
p3413
sI3412
S'e9a166e354f57ce68da7aa5baed2875d'
p3414
sI3413
S'a679f7ede37b1a73af88c572c8bc2de8'
p3415
sI3414
S'7eb4fded0b399f6375b0d7f470363ea4'
p3416
sI3415
S'ccfb4199a0c39b110275c2e5d719e111'
p3417
sI3416
S'7eb4fded0b399f6375b0d7f470363ea4'
p3418
sI3417
S'ed9d28f8b48cbbc22905eb0e4939a971'
p3419
sI3418
S'ae06cc39c0396c461b6ee0230c1419cc'
p3420
sI3419
S'b13f88228c65c83a5f6d245ac363ba94'
p3421
sI3420
S'7b084b261fdcb58481d1cef12a46f0da'
p3422
sI3421
S'ed9d28f8b48cbbc22905eb0e4939a971'
p3423
sI3422
S'ed9d28f8b48cbbc22905eb0e4939a971'
p3424
sI3423
S'5e51d4e322ad30dc81af9af8e94dda12'
p3425
sI3424
S'b1fb9c115485587e4fc3ac72aef2b118'
p3426
sI3425
S'7eb4fded0b399f6375b0d7f470363ea4'
p3427
sI3426
S'dbf3cb02269e7d4aaecce7fdd6c2bd8e'
p3428
sI3427
S'3a42b0c12030c5e8c451469c76c773b6'
p3429
sI3428
S'81d84246a74d608f3ee63a106cbb043b'
p3430
sI3429
S'c21bc840cbe8b66eaa21f5ee89014837'
p3431
sI3430
S'58d3c44e5215926336e051691a68a0f9'
p3432
sI3431
S'b13f88228c65c83a5f6d245ac363ba94'
p3433
sI3432
S'7bfd9b4735c229e35f886e86f49c7603'
p3434
sI3433
S'ccfb4199a0c39b110275c2e5d719e111'
p3435
sI3434
S'dbf3cb02269e7d4aaecce7fdd6c2bd8e'
p3436
sI3435
S'de7e55fd9dd7958af66476b841e9083c'
p3437
sI3436
S'b7f951bc04a56c5f4c4fe8aed6c5b2b9'
p3438
sI3437
S'9319fcefef4c46f05ee84e13f48b1751'
p3439
sI3438
S'b7f951bc04a56c5f4c4fe8aed6c5b2b9'
p3440
sI3439
S'e6818b7c171928daa79522a08106d7e8'
p3441
sI3440
S'e6818b7c171928daa79522a08106d7e8'
p3442
sI3441
S'c21bc840cbe8b66eaa21f5ee89014837'
p3443
sI3442
S'0bada0c8f61a201a18bf4075141375d2'
p3444
sI3443
S'c21bc840cbe8b66eaa21f5ee89014837'
p3445
sI3444
S'c21bc840cbe8b66eaa21f5ee89014837'
p3446
sI3445
S'0bada0c8f61a201a18bf4075141375d2'
p3447
sI3446
S'ffa96a13101c4baee282ee042ace2192'
p3448
sI3447
S'81d84246a74d608f3ee63a106cbb043b'
p3449
sI3448
S'255a34d27511e4428a9b98d4ecab828d'
p3450
sI3449
S'5e51d4e322ad30dc81af9af8e94dda12'
p3451
sI3450
S'81d84246a74d608f3ee63a106cbb043b'
p3452
sI3451
S'404ed461b4934a8d9cebb88b79c96763'
p3453
sI3452
S'3e1d397a624df1500a0a1dd474f14017'
p3454
sI3453
S'3a42b0c12030c5e8c451469c76c773b6'
p3455
sI3454
S'10dfd3222d6abfbbb68f79c829102ea1'
p3456
sI3455
S'1211e6133c77d1a8eccb71afd229574b'
p3457
sI3456
S'ceefd2f3c96696ad321fea97bd94a930'
p3458
sI3457
S'b13f88228c65c83a5f6d245ac363ba94'
p3459
sI3458
S'ccfb4199a0c39b110275c2e5d719e111'
p3460
sI3459
S'b7f951bc04a56c5f4c4fe8aed6c5b2b9'
p3461
sI3460
S'7640d65e4b2ed645cac2939a03e7fdbe'
p3462
sI3461
S'7d67bdc61b24ea651d4e7d8c3ffff423'
p3463
sI3462
S'b13f88228c65c83a5f6d245ac363ba94'
p3464
sI3463
S'b7f951bc04a56c5f4c4fe8aed6c5b2b9'
p3465
sI3464
S'ed9d28f8b48cbbc22905eb0e4939a971'
p3466
sI3465
S'b7f951bc04a56c5f4c4fe8aed6c5b2b9'
p3467
sI3466
S'b7f951bc04a56c5f4c4fe8aed6c5b2b9'
p3468
sI3467
S'dbf3cb02269e7d4aaecce7fdd6c2bd8e'
p3469
sI3468
S'7bfd9b4735c229e35f886e86f49c7603'
p3470
sI3469
S'81d84246a74d608f3ee63a106cbb043b'
p3471
sI3470
S'dbf3cb02269e7d4aaecce7fdd6c2bd8e'
p3472
sI3471
S'3a42b0c12030c5e8c451469c76c773b6'
p3473
sI3472
S'81d84246a74d608f3ee63a106cbb043b'
p3474
sI3473
S'81d84246a74d608f3ee63a106cbb043b'
p3475
sI3474
S'a663d319369b4440d88c632d121fee83'
p3476
sI3475
S'a679f7ede37b1a73af88c572c8bc2de8'
p3477
sI3476
S'1211e6133c77d1a8eccb71afd229574b'
p3478
sI3477
S'a679f7ede37b1a73af88c572c8bc2de8'
p3479
sI3478
S'dbf3cb02269e7d4aaecce7fdd6c2bd8e'
p3480
sI3479
S'd455eab08438d594c5a6a9f4d6aea9f2'
p3481
sI3480
S'a5699f2b94f800b4b7d07dfc1c584edc'
p3482
sI3481
S'3a42b0c12030c5e8c451469c76c773b6'
p3483
sI3482
S'802fd0a0a80a4df0ac4aff53c20c6f88'
p3484
sI3483
S'ffa96a13101c4baee282ee042ace2192'
p3485
sI3484
S'7b084b261fdcb58481d1cef12a46f0da'
p3486
sI3485
S'8fcb64811fd61f1c81c31cd3197f4b6c'
p3487
sI3486
S'a34d08cd72a393de9a435ea3b8e17b1b'
p3488
sI3487
S'26216e7c7acc8f265ebe3140ccdebf50'
p3489
sI3488
S'07ebe859a1b1368d566d7c4770590bf0'
p3490
sI3489
S'd455eab08438d594c5a6a9f4d6aea9f2'
p3491
sI3490
S'81d84246a74d608f3ee63a106cbb043b'
p3492
sI3491
S'e9a166e354f57ce68da7aa5baed2875d'
p3493
sI3492
S'dbf3cb02269e7d4aaecce7fdd6c2bd8e'
p3494
sI3493
S'ffa96a13101c4baee282ee042ace2192'
p3495
sI3494
S'b7f951bc04a56c5f4c4fe8aed6c5b2b9'
p3496
sI3495
S'b7f951bc04a56c5f4c4fe8aed6c5b2b9'
p3497
sI3496
S'81d84246a74d608f3ee63a106cbb043b'
p3498
sI3497
S'b7f951bc04a56c5f4c4fe8aed6c5b2b9'
p3499
sI3498
S'6327dfcc165a7bd74694521f810a5f29'
p3500
sI3499
S'404ed461b4934a8d9cebb88b79c96763'
p3501
sI3500
S'404ed461b4934a8d9cebb88b79c96763'
p3502
sI3501
S'b7f951bc04a56c5f4c4fe8aed6c5b2b9'
p3503
sI3502
S'6327dfcc165a7bd74694521f810a5f29'
p3504
sI3503
S'6327dfcc165a7bd74694521f810a5f29'
p3505
sI3504
S'ceefd2f3c96696ad321fea97bd94a930'
p3506
sI3505
S'33854509cd2f5c3e112ae3ab148bc35c'
p3507
sI3506
S'404ed461b4934a8d9cebb88b79c96763'
p3508
sI3507
S'e6818b7c171928daa79522a08106d7e8'
p3509
sI3508
S'b7f951bc04a56c5f4c4fe8aed6c5b2b9'
p3510
sI3509
S'dbf3cb02269e7d4aaecce7fdd6c2bd8e'
p3511
sI3510
S'802fd0a0a80a4df0ac4aff53c20c6f88'
p3512
sI3511
S'6327dfcc165a7bd74694521f810a5f29'
p3513
sI3512
S'c7f633833deb7757b7d9ddf3d8fa3180'
p3514
sI3513
S'6327dfcc165a7bd74694521f810a5f29'
p3515
sI3514
S'ed9d28f8b48cbbc22905eb0e4939a971'
p3516
sI3515
S'6327dfcc165a7bd74694521f810a5f29'
p3517
sI3516
S'b7f951bc04a56c5f4c4fe8aed6c5b2b9'
p3518
sI3517
S'b7f951bc04a56c5f4c4fe8aed6c5b2b9'
p3519
sI3518
S'dbf3cb02269e7d4aaecce7fdd6c2bd8e'
p3520
sI3519
S'81d84246a74d608f3ee63a106cbb043b'
p3521
sI3520
S'ed9d28f8b48cbbc22905eb0e4939a971'
p3522
sI3521
S'404ed461b4934a8d9cebb88b79c96763'
p3523
sI3522
S'ccfb4199a0c39b110275c2e5d719e111'
p3524
sI3523
S'ccfb4199a0c39b110275c2e5d719e111'
p3525
sI3524
S'3a42b0c12030c5e8c451469c76c773b6'
p3526
sI3525
S'81d84246a74d608f3ee63a106cbb043b'
p3527
sI3526
S'a679f7ede37b1a73af88c572c8bc2de8'
p3528
sI3527
S'7bfd9b4735c229e35f886e86f49c7603'
p3529
sI3528
S'b7f951bc04a56c5f4c4fe8aed6c5b2b9'
p3530
sI3529
S'1c674f4da09702648fa1de63230a68de'
p3531
sI3530
S'ceefd2f3c96696ad321fea97bd94a930'
p3532
sI3531
S'd455eab08438d594c5a6a9f4d6aea9f2'
p3533
sI3532
S'ed9d28f8b48cbbc22905eb0e4939a971'
p3534
sI3533
S'1211e6133c77d1a8eccb71afd229574b'
p3535
sI3534
S'10dfd3222d6abfbbb68f79c829102ea1'
p3536
sI3535
S'33854509cd2f5c3e112ae3ab148bc35c'
p3537
sI3536
S'e6818b7c171928daa79522a08106d7e8'
p3538
sI3537
S'3a42b0c12030c5e8c451469c76c773b6'
p3539
sI3538
S'b7f951bc04a56c5f4c4fe8aed6c5b2b9'
p3540
sI3539
S'c21bc840cbe8b66eaa21f5ee89014837'
p3541
sI3540
S'7eb4fded0b399f6375b0d7f470363ea4'
p3542
sI3541
S'6327dfcc165a7bd74694521f810a5f29'
p3543
sI3542
S'ed9d28f8b48cbbc22905eb0e4939a971'
p3544
sI3543
S'6327dfcc165a7bd74694521f810a5f29'
p3545
sI3544
S'81d84246a74d608f3ee63a106cbb043b'
p3546
sI3545
S'ceefd2f3c96696ad321fea97bd94a930'
p3547
sI3546
S'10dfd3222d6abfbbb68f79c829102ea1'
p3548
sI3547
S'b7f951bc04a56c5f4c4fe8aed6c5b2b9'
p3549
sI3548
S'b7f951bc04a56c5f4c4fe8aed6c5b2b9'
p3550
sI3549
S'7d67bdc61b24ea651d4e7d8c3ffff423'
p3551
sI3550
S'ed9d28f8b48cbbc22905eb0e4939a971'
p3552
sI3551
S'10dfd3222d6abfbbb68f79c829102ea1'
p3553
sI3552
S'81d84246a74d608f3ee63a106cbb043b'
p3554
sI3553
S'e6818b7c171928daa79522a08106d7e8'
p3555
sI3554
S'b7f951bc04a56c5f4c4fe8aed6c5b2b9'
p3556
sI3555
S'b7f951bc04a56c5f4c4fe8aed6c5b2b9'
p3557
sI3556
S'ed9d28f8b48cbbc22905eb0e4939a971'
p3558
sI3557
S'ed9d28f8b48cbbc22905eb0e4939a971'
p3559
sI3558
S'b7f951bc04a56c5f4c4fe8aed6c5b2b9'
p3560
sI3559
S'404ed461b4934a8d9cebb88b79c96763'
p3561
sI3560
S'd455eab08438d594c5a6a9f4d6aea9f2'
p3562
sI3561
S'81d84246a74d608f3ee63a106cbb043b'
p3563
sI3562
S'7eb4fded0b399f6375b0d7f470363ea4'
p3564
sI3563
S'b1fb9c115485587e4fc3ac72aef2b118'
p3565
sI3564
S'1377fc2c98ac09896ba48afcac24041a'
p3566
sI3565
S'a5699f2b94f800b4b7d07dfc1c584edc'
p3567
sI3566
S'a5699f2b94f800b4b7d07dfc1c584edc'
p3568
sI3567
S'b7f951bc04a56c5f4c4fe8aed6c5b2b9'
p3569
sI3568
S'3a42b0c12030c5e8c451469c76c773b6'
p3570
sI3569
S'b7f951bc04a56c5f4c4fe8aed6c5b2b9'
p3571
sI3570
S'b13f88228c65c83a5f6d245ac363ba94'
p3572
sI3571
S'1211e6133c77d1a8eccb71afd229574b'
p3573
sI3572
S'7eb4fded0b399f6375b0d7f470363ea4'
p3574
sI3573
S'666d73877301ccb1b24fe70823562513'
p3575
sI3574
S'58d3c44e5215926336e051691a68a0f9'
p3576
sI3575
S'ceefd2f3c96696ad321fea97bd94a930'
p3577
sI3576
S'33854509cd2f5c3e112ae3ab148bc35c'
p3578
sI3577
S'b13f88228c65c83a5f6d245ac363ba94'
p3579
sI3578
S'c7f633833deb7757b7d9ddf3d8fa3180'
p3580
sI3579
S'b13f88228c65c83a5f6d245ac363ba94'
p3581
sI3580
S'1211e6133c77d1a8eccb71afd229574b'
p3582
sI3581
S'ed9d28f8b48cbbc22905eb0e4939a971'
p3583
sI3582
S'd3fabf6946d59b69ce52039159451465'
p3584
sI3583
S'd455eab08438d594c5a6a9f4d6aea9f2'
p3585
sI3584
S'7eb4fded0b399f6375b0d7f470363ea4'
p3586
sI3585
S'dbf3cb02269e7d4aaecce7fdd6c2bd8e'
p3587
sI3586
S'ed9d28f8b48cbbc22905eb0e4939a971'
p3588
sI3587
S'3a42b0c12030c5e8c451469c76c773b6'
p3589
sI3588
S'd455eab08438d594c5a6a9f4d6aea9f2'
p3590
sI3589
S'10be300cc18fb4157cc460ebf0ff5a80'
p3591
sI3590
S'3a42b0c12030c5e8c451469c76c773b6'
p3592
sI3591
S'9319fcefef4c46f05ee84e13f48b1751'
p3593
sI3592
S'9319fcefef4c46f05ee84e13f48b1751'
p3594
sI3593
S'8fcb64811fd61f1c81c31cd3197f4b6c'
p3595
sI3594
S'ceefd2f3c96696ad321fea97bd94a930'
p3596
sI3595
S'9319fcefef4c46f05ee84e13f48b1751'
p3597
sI3596
S'9319fcefef4c46f05ee84e13f48b1751'
p3598
sI3597
S'9319fcefef4c46f05ee84e13f48b1751'
p3599
sI3598
S'33854509cd2f5c3e112ae3ab148bc35c'
p3600
sI3599
S'81d84246a74d608f3ee63a106cbb043b'
p3601
sI3600
S'd455eab08438d594c5a6a9f4d6aea9f2'
p3602
sI3601
S'500ccceea32e67d8d11f7d3d495e2c07'
p3603
sI3602
S'e6818b7c171928daa79522a08106d7e8'
p3604
sI3603
S'7eb4fded0b399f6375b0d7f470363ea4'
p3605
sI3604
S'b7f951bc04a56c5f4c4fe8aed6c5b2b9'
p3606
sI3605
S'4738796f60291f044124b54757b0cc1f'
p3607
sI3606
S'3a42b0c12030c5e8c451469c76c773b6'
p3608
sI3607
S'404ed461b4934a8d9cebb88b79c96763'
p3609
sI3608
S'3a42b0c12030c5e8c451469c76c773b6'
p3610
sI3609
S'33854509cd2f5c3e112ae3ab148bc35c'
p3611
sI3610
S'404ed461b4934a8d9cebb88b79c96763'
p3612
sI3611
S'b7f951bc04a56c5f4c4fe8aed6c5b2b9'
p3613
sI3612
S'f7d8ae458eff12489df5d950117ef847'
p3614
sI3613
S'404ed461b4934a8d9cebb88b79c96763'
p3615
sI3614
S'b13f88228c65c83a5f6d245ac363ba94'
p3616
sI3615
S'3a42b0c12030c5e8c451469c76c773b6'
p3617
sI3616
S'1211e6133c77d1a8eccb71afd229574b'
p3618
sI3617
S'b13f88228c65c83a5f6d245ac363ba94'
p3619
sI3618
S'81d84246a74d608f3ee63a106cbb043b'
p3620
sI3619
S'500ccceea32e67d8d11f7d3d495e2c07'
p3621
sI3620
S'7eb4fded0b399f6375b0d7f470363ea4'
p3622
sI3621
S'500ccceea32e67d8d11f7d3d495e2c07'
p3623
sI3622
S'1fdd04c26f06b99676108652dc4d443f'
p3624
sI3623
S'500ccceea32e67d8d11f7d3d495e2c07'
p3625
sI3624
S'7eb4fded0b399f6375b0d7f470363ea4'
p3626
sI3625
S'500ccceea32e67d8d11f7d3d495e2c07'
p3627
sI3626
S'b7f951bc04a56c5f4c4fe8aed6c5b2b9'
p3628
sI3627
S'ed9d28f8b48cbbc22905eb0e4939a971'
p3629
sI3628
S'81d84246a74d608f3ee63a106cbb043b'
p3630
sI3629
S'dbf3cb02269e7d4aaecce7fdd6c2bd8e'
p3631
sI3630
S'500ccceea32e67d8d11f7d3d495e2c07'
p3632
sI3631
S'404ed461b4934a8d9cebb88b79c96763'
p3633
sI3632
S'c7f633833deb7757b7d9ddf3d8fa3180'
p3634
sI3633
S'c7f633833deb7757b7d9ddf3d8fa3180'
p3635
sI3634
S'500ccceea32e67d8d11f7d3d495e2c07'
p3636
sI3635
S'7eb4fded0b399f6375b0d7f470363ea4'
p3637
sI3636
S'c7f633833deb7757b7d9ddf3d8fa3180'
p3638
sI3637
S'7b084b261fdcb58481d1cef12a46f0da'
p3639
sI3638
S'c7f633833deb7757b7d9ddf3d8fa3180'
p3640
sI3639
S'c7f633833deb7757b7d9ddf3d8fa3180'
p3641
sI3640
S'1211e6133c77d1a8eccb71afd229574b'
p3642
sI3641
S'c7f633833deb7757b7d9ddf3d8fa3180'
p3643
sI3642
S'500ccceea32e67d8d11f7d3d495e2c07'
p3644
sI3643
S'500ccceea32e67d8d11f7d3d495e2c07'
p3645
sI3644
S'ffa96a13101c4baee282ee042ace2192'
p3646
sI3645
S'a679f7ede37b1a73af88c572c8bc2de8'
p3647
sI3646
S'7eb4fded0b399f6375b0d7f470363ea4'
p3648
sI3647
S'10dfd3222d6abfbbb68f79c829102ea1'
p3649
sI3648
S'7eb4fded0b399f6375b0d7f470363ea4'
p3650
sI3649
S'3a42b0c12030c5e8c451469c76c773b6'
p3651
sI3650
S'7eb4fded0b399f6375b0d7f470363ea4'
p3652
sI3651
S'500ccceea32e67d8d11f7d3d495e2c07'
p3653
sI3652
S'9319fcefef4c46f05ee84e13f48b1751'
p3654
sI3653
S'500ccceea32e67d8d11f7d3d495e2c07'
p3655
sI3654
S'c2ec79a92ef680fa66bf2e0f6b028d0b'
p3656
sI3655
S'f7d8ae458eff12489df5d950117ef847'
p3657
sI3656
S'ceefd2f3c96696ad321fea97bd94a930'
p3658
sI3657
S'e6818b7c171928daa79522a08106d7e8'
p3659
sI3658
S'e6818b7c171928daa79522a08106d7e8'
p3660
sI3659
S'e6818b7c171928daa79522a08106d7e8'
p3661
sI3660
S'666d73877301ccb1b24fe70823562513'
p3662
sI3661
S'b7f951bc04a56c5f4c4fe8aed6c5b2b9'
p3663
sI3662
S'3a42b0c12030c5e8c451469c76c773b6'
p3664
sI3663
S'7640d65e4b2ed645cac2939a03e7fdbe'
p3665
sI3664
S'0bada0c8f61a201a18bf4075141375d2'
p3666
sI3665
S'1fdd04c26f06b99676108652dc4d443f'
p3667
sI3666
S'814858ed989f78f4aeea8beca30face8'
p3668
sI3667
S'b1fb9c115485587e4fc3ac72aef2b118'
p3669
sI3668
S'b13f88228c65c83a5f6d245ac363ba94'
p3670
sI3669
S'500ccceea32e67d8d11f7d3d495e2c07'
p3671
sI3670
S'b13f88228c65c83a5f6d245ac363ba94'
p3672
sI3671
S'33854509cd2f5c3e112ae3ab148bc35c'
p3673
sI3672
S'10be300cc18fb4157cc460ebf0ff5a80'
p3674
sI3673
S'c21bc840cbe8b66eaa21f5ee89014837'
p3675
sI3674
S'c7f633833deb7757b7d9ddf3d8fa3180'
p3676
sI3675
S'b7f951bc04a56c5f4c4fe8aed6c5b2b9'
p3677
sI3676
S'500ccceea32e67d8d11f7d3d495e2c07'
p3678
sI3677
S'ed9d28f8b48cbbc22905eb0e4939a971'
p3679
sI3678
S'7eb4fded0b399f6375b0d7f470363ea4'
p3680
sI3679
S'b13f88228c65c83a5f6d245ac363ba94'
p3681
sI3680
S'1fdd04c26f06b99676108652dc4d443f'
p3682
sI3681
S'c21bc840cbe8b66eaa21f5ee89014837'
p3683
sI3682
S'7eb4fded0b399f6375b0d7f470363ea4'
p3684
sI3683
S'c21bc840cbe8b66eaa21f5ee89014837'
p3685
sI3684
S'e6818b7c171928daa79522a08106d7e8'
p3686
sI3685
S'c21bc840cbe8b66eaa21f5ee89014837'
p3687
sI3686
S'500ccceea32e67d8d11f7d3d495e2c07'
p3688
sI3687
S'500ccceea32e67d8d11f7d3d495e2c07'
p3689
sI3688
S'20c8b3685fc5c14db66a5e24736b1b66'
p3690
sI3689
S'e6818b7c171928daa79522a08106d7e8'
p3691
sI3690
S'7bfd9b4735c229e35f886e86f49c7603'
p3692
sI3691
S'd455eab08438d594c5a6a9f4d6aea9f2'
p3693
sI3692
S'b7f951bc04a56c5f4c4fe8aed6c5b2b9'
p3694
sI3693
S'7640d65e4b2ed645cac2939a03e7fdbe'
p3695
sI3694
S'500ccceea32e67d8d11f7d3d495e2c07'
p3696
sI3695
S'd455eab08438d594c5a6a9f4d6aea9f2'
p3697
sI3696
S'500ccceea32e67d8d11f7d3d495e2c07'
p3698
sI3697
S'c7f633833deb7757b7d9ddf3d8fa3180'
p3699
sI3698
S'7640d65e4b2ed645cac2939a03e7fdbe'
p3700
sI3699
S'7640d65e4b2ed645cac2939a03e7fdbe'
p3701
sI3700
S'7640d65e4b2ed645cac2939a03e7fdbe'
p3702
sI3701
S'7640d65e4b2ed645cac2939a03e7fdbe'
p3703
sI3702
S'e6818b7c171928daa79522a08106d7e8'
p3704
sI3703
S'7d67bdc61b24ea651d4e7d8c3ffff423'
p3705
sI3704
S'b7f951bc04a56c5f4c4fe8aed6c5b2b9'
p3706
sI3705
S'58d3c44e5215926336e051691a68a0f9'
p3707
sI3706
S'b78909db58dc7601415b8a9a1642e062'
p3708
sI3707
S'b78909db58dc7601415b8a9a1642e062'
p3709
sI3708
S'b7f951bc04a56c5f4c4fe8aed6c5b2b9'
p3710
sI3709
S'500ccceea32e67d8d11f7d3d495e2c07'
p3711
sI3710
S'10dfd3222d6abfbbb68f79c829102ea1'
p3712
sI3711
S'ffebde2ea8e58db6778f01ce69b3af3f'
p3713
sI3712
S'f7d8ae458eff12489df5d950117ef847'
p3714
sI3713
S'd455eab08438d594c5a6a9f4d6aea9f2'
p3715
sI3714
S'ceefd2f3c96696ad321fea97bd94a930'
p3716
sI3715
S'b1fb9c115485587e4fc3ac72aef2b118'
p3717
sI3716
S'ffebde2ea8e58db6778f01ce69b3af3f'
p3718
sI3717
S'd455eab08438d594c5a6a9f4d6aea9f2'
p3719
sI3718
S'a663d319369b4440d88c632d121fee83'
p3720
sI3719
S'e6818b7c171928daa79522a08106d7e8'
p3721
sI3720
S'b1fb9c115485587e4fc3ac72aef2b118'
p3722
sI3721
S'7eb4fded0b399f6375b0d7f470363ea4'
p3723
sI3722
S'e6818b7c171928daa79522a08106d7e8'
p3724
sI3723
S'a663d319369b4440d88c632d121fee83'
p3725
sI3724
S'7b084b261fdcb58481d1cef12a46f0da'
p3726
sI3725
S'7d67bdc61b24ea651d4e7d8c3ffff423'
p3727
sI3726
S'500ccceea32e67d8d11f7d3d495e2c07'
p3728
sI3727
S'a663d319369b4440d88c632d121fee83'
p3729
sI3728
S'ba0268981bb269ddcf6df120299e7a04'
p3730
sI3729
S'ba0268981bb269ddcf6df120299e7a04'
p3731
sI3730
S'ed9d28f8b48cbbc22905eb0e4939a971'
p3732
sI3731
S'500ccceea32e67d8d11f7d3d495e2c07'
p3733
sI3732
S'500ccceea32e67d8d11f7d3d495e2c07'
p3734
sI3733
S'ffa96a13101c4baee282ee042ace2192'
p3735
sI3734
S'b13f88228c65c83a5f6d245ac363ba94'
p3736
sI3735
S'500ccceea32e67d8d11f7d3d495e2c07'
p3737
sI3736
S'500ccceea32e67d8d11f7d3d495e2c07'
p3738
sI3737
S'b7f951bc04a56c5f4c4fe8aed6c5b2b9'
p3739
sI3738
S'81d84246a74d608f3ee63a106cbb043b'
p3740
sI3739
S'f7d8ae458eff12489df5d950117ef847'
p3741
sI3740
S'7d67bdc61b24ea651d4e7d8c3ffff423'
p3742
sI3741
S'500ccceea32e67d8d11f7d3d495e2c07'
p3743
sI3742
S'500ccceea32e67d8d11f7d3d495e2c07'
p3744
sI3743
S'ed9d28f8b48cbbc22905eb0e4939a971'
p3745
sI3744
S'500ccceea32e67d8d11f7d3d495e2c07'
p3746
sI3745
S'500ccceea32e67d8d11f7d3d495e2c07'
p3747
sI3746
S'6b7879b5036f18752ff29f13fa20e976'
p3748
sI3747
S'500ccceea32e67d8d11f7d3d495e2c07'
p3749
sI3748
S'd455eab08438d594c5a6a9f4d6aea9f2'
p3750
sI3749
S'e6818b7c171928daa79522a08106d7e8'
p3751
sI3750
S'b13f88228c65c83a5f6d245ac363ba94'
p3752
sI3751
S'd455eab08438d594c5a6a9f4d6aea9f2'
p3753
sI3752
S'ed9d28f8b48cbbc22905eb0e4939a971'
p3754
sI3753
S'd3fabf6946d59b69ce52039159451465'
p3755
sI3754
S'500ccceea32e67d8d11f7d3d495e2c07'
p3756
sI3755
S'500ccceea32e67d8d11f7d3d495e2c07'
p3757
sI3756
S'6327dfcc165a7bd74694521f810a5f29'
p3758
sI3757
S'79d30204180587d3a587ef90f82a4e30'
p3759
sI3758
S'dbf3cb02269e7d4aaecce7fdd6c2bd8e'
p3760
sI3759
S'500ccceea32e67d8d11f7d3d495e2c07'
p3761
sI3760
S'500ccceea32e67d8d11f7d3d495e2c07'
p3762
sI3761
S'500ccceea32e67d8d11f7d3d495e2c07'
p3763
sI3762
S'7eb4fded0b399f6375b0d7f470363ea4'
p3764
sI3763
S'b7f951bc04a56c5f4c4fe8aed6c5b2b9'
p3765
sI3764
S'b7f951bc04a56c5f4c4fe8aed6c5b2b9'
p3766
sI3765
S'6327dfcc165a7bd74694521f810a5f29'
p3767
sI3766
S'7eb4fded0b399f6375b0d7f470363ea4'
p3768
sI3767
S'7bfd9b4735c229e35f886e86f49c7603'
p3769
sI3768
S'500ccceea32e67d8d11f7d3d495e2c07'
p3770
sI3769
S'500ccceea32e67d8d11f7d3d495e2c07'
p3771
sI3770
S'814858ed989f78f4aeea8beca30face8'
p3772
sI3771
S'd455eab08438d594c5a6a9f4d6aea9f2'
p3773
sI3772
S'b7f951bc04a56c5f4c4fe8aed6c5b2b9'
p3774
sI3773
S'e6818b7c171928daa79522a08106d7e8'
p3775
sI3774
S'd455eab08438d594c5a6a9f4d6aea9f2'
p3776
sI3775
S'd455eab08438d594c5a6a9f4d6aea9f2'
p3777
sI3776
S'7d67bdc61b24ea651d4e7d8c3ffff423'
p3778
sI3777
S'd455eab08438d594c5a6a9f4d6aea9f2'
p3779
sI3778
S'0813c1fdd58ac900edc4497eb0bb17f6'
p3780
sI3779
S'0813c1fdd58ac900edc4497eb0bb17f6'
p3781
sI3780
S'0813c1fdd58ac900edc4497eb0bb17f6'
p3782
sI3781
S'0813c1fdd58ac900edc4497eb0bb17f6'
p3783
sI3782
S'b7f951bc04a56c5f4c4fe8aed6c5b2b9'
p3784
sI3783
S'0813c1fdd58ac900edc4497eb0bb17f6'
p3785
sI3784
S'd455eab08438d594c5a6a9f4d6aea9f2'
p3786
sI3785
S'0813c1fdd58ac900edc4497eb0bb17f6'
p3787
sI3786
S'814858ed989f78f4aeea8beca30face8'
p3788
sI3787
S'7d67bdc61b24ea651d4e7d8c3ffff423'
p3789
sI3788
S'0813c1fdd58ac900edc4497eb0bb17f6'
p3790
sI3789
S'c21bc840cbe8b66eaa21f5ee89014837'
p3791
sI3790
S'd455eab08438d594c5a6a9f4d6aea9f2'
p3792
sI3791
S'a663d319369b4440d88c632d121fee83'
p3793
sI3792
S'7eb4fded0b399f6375b0d7f470363ea4'
p3794
sI3793
S'1211e6133c77d1a8eccb71afd229574b'
p3795
sI3794
S'a663d319369b4440d88c632d121fee83'
p3796
sI3795
S'a5699f2b94f800b4b7d07dfc1c584edc'
p3797
sI3796
S'0813c1fdd58ac900edc4497eb0bb17f6'
p3798
sI3797
S'b7f951bc04a56c5f4c4fe8aed6c5b2b9'
p3799
sI3798
S'10be300cc18fb4157cc460ebf0ff5a80'
p3800
sI3799
S'7d67bdc61b24ea651d4e7d8c3ffff423'
p3801
sI3800
S'7640d65e4b2ed645cac2939a03e7fdbe'
p3802
sI3801
S'7640d65e4b2ed645cac2939a03e7fdbe'
p3803
sI3802
S'3a42b0c12030c5e8c451469c76c773b6'
p3804
sI3803
S'b7f951bc04a56c5f4c4fe8aed6c5b2b9'
p3805
sI3804
S'b7f951bc04a56c5f4c4fe8aed6c5b2b9'
p3806
sI3805
S'79d30204180587d3a587ef90f82a4e30'
p3807
sI3806
S'f7d8ae458eff12489df5d950117ef847'
p3808
sI3807
S'b7f951bc04a56c5f4c4fe8aed6c5b2b9'
p3809
sI3808
S'7eb4fded0b399f6375b0d7f470363ea4'
p3810
sI3809
S'1211e6133c77d1a8eccb71afd229574b'
p3811
sI3810
S'7bfd9b4735c229e35f886e86f49c7603'
p3812
sI3811
S'3c4058cb538e012afb806707060dd280'
p3813
sI3812
S'c2ec79a92ef680fa66bf2e0f6b028d0b'
p3814
sI3813
S'3c4058cb538e012afb806707060dd280'
p3815
sI3814
S'0813c1fdd58ac900edc4497eb0bb17f6'
p3816
sI3815
S'3c4058cb538e012afb806707060dd280'
p3817
sI3816
S'0813c1fdd58ac900edc4497eb0bb17f6'
p3818
sI3817
S'b0f19a521e60ec72decd0620819fbed6'
p3819
sI3818
S'a679f7ede37b1a73af88c572c8bc2de8'
p3820
sI3819
S'a5699f2b94f800b4b7d07dfc1c584edc'
p3821
sI3820
S'500ccceea32e67d8d11f7d3d495e2c07'
p3822
sI3821
S'b7f951bc04a56c5f4c4fe8aed6c5b2b9'
p3823
sI3822
S'b13f88228c65c83a5f6d245ac363ba94'
p3824
sI3823
S'dbf3cb02269e7d4aaecce7fdd6c2bd8e'
p3825
sI3824
S'500ccceea32e67d8d11f7d3d495e2c07'
p3826
sI3825
S'500ccceea32e67d8d11f7d3d495e2c07'
p3827
sI3826
S'20c8b3685fc5c14db66a5e24736b1b66'
p3828
sI3827
S'500ccceea32e67d8d11f7d3d495e2c07'
p3829
sI3828
S'500ccceea32e67d8d11f7d3d495e2c07'
p3830
sI3829
S'500ccceea32e67d8d11f7d3d495e2c07'
p3831
sI3830
S'500ccceea32e67d8d11f7d3d495e2c07'
p3832
sI3831
S'500ccceea32e67d8d11f7d3d495e2c07'
p3833
sI3832
S'500ccceea32e67d8d11f7d3d495e2c07'
p3834
sI3833
S'0813c1fdd58ac900edc4497eb0bb17f6'
p3835
sI3834
S'0813c1fdd58ac900edc4497eb0bb17f6'
p3836
sI3835
S'e6818b7c171928daa79522a08106d7e8'
p3837
sI3836
S'a663d319369b4440d88c632d121fee83'
p3838
sI3837
S'ed9d28f8b48cbbc22905eb0e4939a971'
p3839
sI3838
S'404ed461b4934a8d9cebb88b79c96763'
p3840
sI3839
S'0813c1fdd58ac900edc4497eb0bb17f6'
p3841
sI3840
S'7eb4fded0b399f6375b0d7f470363ea4'
p3842
sI3841
S'0813c1fdd58ac900edc4497eb0bb17f6'
p3843
sI3842
S'8fcb64811fd61f1c81c31cd3197f4b6c'
p3844
sI3843
S'a663d319369b4440d88c632d121fee83'
p3845
sI3844
S'0813c1fdd58ac900edc4497eb0bb17f6'
p3846
sI3845
S'd455eab08438d594c5a6a9f4d6aea9f2'
p3847
sI3846
S'a663d319369b4440d88c632d121fee83'
p3848
sI3847
S'7d67bdc61b24ea651d4e7d8c3ffff423'
p3849
sI3848
S'33854509cd2f5c3e112ae3ab148bc35c'
p3850
sI3849
S'ceefd2f3c96696ad321fea97bd94a930'
p3851
sI3850
S'ffebde2ea8e58db6778f01ce69b3af3f'
p3852
sI3851
S'd3d955da016663c391cd6fc52fba0c8a'
p3853
sI3852
S'7b084b261fdcb58481d1cef12a46f0da'
p3854
sI3853
S'8fcb64811fd61f1c81c31cd3197f4b6c'
p3855
sI3854
S'd455eab08438d594c5a6a9f4d6aea9f2'
p3856
sI3855
S'3a42b0c12030c5e8c451469c76c773b6'
p3857
sI3856
S'7bfd9b4735c229e35f886e86f49c7603'
p3858
sI3857
S'a663d319369b4440d88c632d121fee83'
p3859
sI3858
S'f7d8ae458eff12489df5d950117ef847'
p3860
sI3859
S'b7f951bc04a56c5f4c4fe8aed6c5b2b9'
p3861
sI3860
S'7b7b5bf5b8dea5c03eaff88cde5dd145'
p3862
sI3861
S'b7f951bc04a56c5f4c4fe8aed6c5b2b9'
p3863
sI3862
S'500ccceea32e67d8d11f7d3d495e2c07'
p3864
sI3863
S'500ccceea32e67d8d11f7d3d495e2c07'
p3865
sI3864
S'b1fb9c115485587e4fc3ac72aef2b118'
p3866
sI3865
S'7d67bdc61b24ea651d4e7d8c3ffff423'
p3867
sI3866
S'ed9d28f8b48cbbc22905eb0e4939a971'
p3868
sI3867
S'b7f951bc04a56c5f4c4fe8aed6c5b2b9'
p3869
sI3868
S'b7f951bc04a56c5f4c4fe8aed6c5b2b9'
p3870
sI3869
S'500ccceea32e67d8d11f7d3d495e2c07'
p3871
sI3870
S'7d67bdc61b24ea651d4e7d8c3ffff423'
p3872
sI3871
S'd455eab08438d594c5a6a9f4d6aea9f2'
p3873
sI3872
S'0813c1fdd58ac900edc4497eb0bb17f6'
p3874
sI3873
S'c2ec79a92ef680fa66bf2e0f6b028d0b'
p3875
sI3874
S'0813c1fdd58ac900edc4497eb0bb17f6'
p3876
sI3875
S'0813c1fdd58ac900edc4497eb0bb17f6'
p3877
sI3876
S'c2ec79a92ef680fa66bf2e0f6b028d0b'
p3878
sI3877
S'500ccceea32e67d8d11f7d3d495e2c07'
p3879
sI3878
S'7d67bdc61b24ea651d4e7d8c3ffff423'
p3880
sI3879
S'7bfd9b4735c229e35f886e86f49c7603'
p3881
sI3880
S'500ccceea32e67d8d11f7d3d495e2c07'
p3882
sI3881
S'3c4058cb538e012afb806707060dd280'
p3883
sI3882
S'500ccceea32e67d8d11f7d3d495e2c07'
p3884
sI3883
S'500ccceea32e67d8d11f7d3d495e2c07'
p3885
sI3884
S'0813c1fdd58ac900edc4497eb0bb17f6'
p3886
sI3885
S'dbf3cb02269e7d4aaecce7fdd6c2bd8e'
p3887
sI3886
S'404ed461b4934a8d9cebb88b79c96763'
p3888
sI3887
S'3c4058cb538e012afb806707060dd280'
p3889
sI3888
S'b7f951bc04a56c5f4c4fe8aed6c5b2b9'
p3890
sI3889
S'ed9d28f8b48cbbc22905eb0e4939a971'
p3891
sI3890
S'500ccceea32e67d8d11f7d3d495e2c07'
p3892
sI3891
S'ed9d28f8b48cbbc22905eb0e4939a971'
p3893
sI3892
S'500ccceea32e67d8d11f7d3d495e2c07'
p3894
sI3893
S'f7d8ae458eff12489df5d950117ef847'
p3895
sI3894
S'dcc318bcb4a4036655a0843b4fe7942e'
p3896
sI3895
S'f7d8ae458eff12489df5d950117ef847'
p3897
sI3896
S'0813c1fdd58ac900edc4497eb0bb17f6'
p3898
sI3897
S'ae06cc39c0396c461b6ee0230c1419cc'
p3899
sI3898
S'81d84246a74d608f3ee63a106cbb043b'
p3900
sI3899
S'500ccceea32e67d8d11f7d3d495e2c07'
p3901
sI3900
S'6327dfcc165a7bd74694521f810a5f29'
p3902
sI3901
S'ceefd2f3c96696ad321fea97bd94a930'
p3903
sI3902
S'7d67bdc61b24ea651d4e7d8c3ffff423'
p3904
sI3903
S'0813c1fdd58ac900edc4497eb0bb17f6'
p3905
sI3904
S'0813c1fdd58ac900edc4497eb0bb17f6'
p3906
sI3905
S'0813c1fdd58ac900edc4497eb0bb17f6'
p3907
sI3906
S'b7f951bc04a56c5f4c4fe8aed6c5b2b9'
p3908
sI3907
S'33854509cd2f5c3e112ae3ab148bc35c'
p3909
sI3908
S'b78909db58dc7601415b8a9a1642e062'
p3910
sI3909
S'0813c1fdd58ac900edc4497eb0bb17f6'
p3911
sI3910
S'b1fb9c115485587e4fc3ac72aef2b118'
p3912
sI3911
S'33854509cd2f5c3e112ae3ab148bc35c'
p3913
sI3912
S'ffa96a13101c4baee282ee042ace2192'
p3914
sI3913
S'f7d8ae458eff12489df5d950117ef847'
p3915
sI3914
S'c2ec79a92ef680fa66bf2e0f6b028d0b'
p3916
sI3915
S'0813c1fdd58ac900edc4497eb0bb17f6'
p3917
sI3916
S'1211e6133c77d1a8eccb71afd229574b'
p3918
sI3917
S'fd0de6977f28814aed2373bdad80f25f'
p3919
sI3918
S'ed9d28f8b48cbbc22905eb0e4939a971'
p3920
sI3919
S'dcc318bcb4a4036655a0843b4fe7942e'
p3921
sI3920
S'c21bc840cbe8b66eaa21f5ee89014837'
p3922
sI3921
S'b7f951bc04a56c5f4c4fe8aed6c5b2b9'
p3923
sI3922
S'3c4058cb538e012afb806707060dd280'
p3924
sI3923
S'7b084b261fdcb58481d1cef12a46f0da'
p3925
sI3924
S'1fdd04c26f06b99676108652dc4d443f'
p3926
sI3925
S'c2ec79a92ef680fa66bf2e0f6b028d0b'
p3927
sI3926
S'dbf3cb02269e7d4aaecce7fdd6c2bd8e'
p3928
sI3927
S'b1fb9c115485587e4fc3ac72aef2b118'
p3929
sI3928
S'0813c1fdd58ac900edc4497eb0bb17f6'
p3930
sI3929
S'b1fb9c115485587e4fc3ac72aef2b118'
p3931
sI3930
S'b26c7fc245ad94a020ba3c5116b77c84'
p3932
sI3931
S'500ccceea32e67d8d11f7d3d495e2c07'
p3933
sI3932
S'b7f951bc04a56c5f4c4fe8aed6c5b2b9'
p3934
sI3933
S'81d84246a74d608f3ee63a106cbb043b'
p3935
sI3934
S'e6818b7c171928daa79522a08106d7e8'
p3936
sI3935
S'b7f951bc04a56c5f4c4fe8aed6c5b2b9'
p3937
sI3936
S'7640d65e4b2ed645cac2939a03e7fdbe'
p3938
sI3937
S'3a42b0c12030c5e8c451469c76c773b6'
p3939
sI3938
S'ed9d28f8b48cbbc22905eb0e4939a971'
p3940
sI3939
S'500ccceea32e67d8d11f7d3d495e2c07'
p3941
sI3940
S'dbf3cb02269e7d4aaecce7fdd6c2bd8e'
p3942
sI3941
S'7640d65e4b2ed645cac2939a03e7fdbe'
p3943
sI3942
S'6327dfcc165a7bd74694521f810a5f29'
p3944
sI3943
S'0813c1fdd58ac900edc4497eb0bb17f6'
p3945
sI3944
S'ceefd2f3c96696ad321fea97bd94a930'
p3946
sI3945
S'7bfd9b4735c229e35f886e86f49c7603'
p3947
sI3946
S'7bfd9b4735c229e35f886e86f49c7603'
p3948
sI3947
S'0813c1fdd58ac900edc4497eb0bb17f6'
p3949
sI3948
S'7b084b261fdcb58481d1cef12a46f0da'
p3950
sI3949
S'0813c1fdd58ac900edc4497eb0bb17f6'
p3951
sI3950
S'1211e6133c77d1a8eccb71afd229574b'
p3952
sI3951
S'81d84246a74d608f3ee63a106cbb043b'
p3953
sI3952
S'c7f633833deb7757b7d9ddf3d8fa3180'
p3954
sI3953
S'10dfd3222d6abfbbb68f79c829102ea1'
p3955
sI3954
S'ed9d28f8b48cbbc22905eb0e4939a971'
p3956
sI3955
S'1211e6133c77d1a8eccb71afd229574b'
p3957
sI3956
S'10dfd3222d6abfbbb68f79c829102ea1'
p3958
sI3957
S'9319fcefef4c46f05ee84e13f48b1751'
p3959
sI3958
S'26216e7c7acc8f265ebe3140ccdebf50'
p3960
sI3959
S'd455eab08438d594c5a6a9f4d6aea9f2'
p3961
sI3960
S'dbf3cb02269e7d4aaecce7fdd6c2bd8e'
p3962
sI3961
S'26216e7c7acc8f265ebe3140ccdebf50'
p3963
sI3962
S'ed9d28f8b48cbbc22905eb0e4939a971'
p3964
sI3963
S'b7f951bc04a56c5f4c4fe8aed6c5b2b9'
p3965
sI3964
S'd455eab08438d594c5a6a9f4d6aea9f2'
p3966
sI3965
S'3c4058cb538e012afb806707060dd280'
p3967
sI3966
S'c2ec79a92ef680fa66bf2e0f6b028d0b'
p3968
sI3967
S'1fdd04c26f06b99676108652dc4d443f'
p3969
sI3968
S'fd0de6977f28814aed2373bdad80f25f'
p3970
sI3969
S'0813c1fdd58ac900edc4497eb0bb17f6'
p3971
sI3970
S'81d84246a74d608f3ee63a106cbb043b'
p3972
sI3971
S'7eb4fded0b399f6375b0d7f470363ea4'
p3973
sI3972
S'26216e7c7acc8f265ebe3140ccdebf50'
p3974
sI3973
S'ed9d28f8b48cbbc22905eb0e4939a971'
p3975
sI3974
S'b7f951bc04a56c5f4c4fe8aed6c5b2b9'
p3976
sI3975
S'7d67bdc61b24ea651d4e7d8c3ffff423'
p3977
sI3976
S'0813c1fdd58ac900edc4497eb0bb17f6'
p3978
sI3977
S'7bfd9b4735c229e35f886e86f49c7603'
p3979
sI3978
S'b7f951bc04a56c5f4c4fe8aed6c5b2b9'
p3980
sI3979
S'7bfd9b4735c229e35f886e86f49c7603'
p3981
sI3980
S'7d67bdc61b24ea651d4e7d8c3ffff423'
p3982
sI3981
S'500ccceea32e67d8d11f7d3d495e2c07'
p3983
sI3982
S'4738796f60291f044124b54757b0cc1f'
p3984
sI3983
S'7bfd9b4735c229e35f886e86f49c7603'
p3985
sI3984
S'0813c1fdd58ac900edc4497eb0bb17f6'
p3986
sI3985
S'ed9d28f8b48cbbc22905eb0e4939a971'
p3987
sI3986
S'0813c1fdd58ac900edc4497eb0bb17f6'
p3988
sI3987
S'c2ec79a92ef680fa66bf2e0f6b028d0b'
p3989
sI3988
S'500ccceea32e67d8d11f7d3d495e2c07'
p3990
sI3989
S'1fdd04c26f06b99676108652dc4d443f'
p3991
sI3990
S'1fdd04c26f06b99676108652dc4d443f'
p3992
sI3991
S'26216e7c7acc8f265ebe3140ccdebf50'
p3993
sI3992
S'26216e7c7acc8f265ebe3140ccdebf50'
p3994
sI3993
S'0813c1fdd58ac900edc4497eb0bb17f6'
p3995
sI3994
S'b7f951bc04a56c5f4c4fe8aed6c5b2b9'
p3996
sI3995
S'1fdd04c26f06b99676108652dc4d443f'
p3997
sI3996
S'26216e7c7acc8f265ebe3140ccdebf50'
p3998
sI3997
S'0813c1fdd58ac900edc4497eb0bb17f6'
p3999
sI3998
S'1fdd04c26f06b99676108652dc4d443f'
p4000
sI3999
S'1211e6133c77d1a8eccb71afd229574b'
p4001
sI4000
S'b78909db58dc7601415b8a9a1642e062'
p4002
sI4001
S'1fdd04c26f06b99676108652dc4d443f'
p4003
sI4002
S'0813c1fdd58ac900edc4497eb0bb17f6'
p4004
sI4003
S'1fdd04c26f06b99676108652dc4d443f'
p4005
sI4004
S'fd0de6977f28814aed2373bdad80f25f'
p4006
sI4005
S'7bfd9b4735c229e35f886e86f49c7603'
p4007
sI4006
S'0813c1fdd58ac900edc4497eb0bb17f6'
p4008
sI4007
S'7bfd9b4735c229e35f886e86f49c7603'
p4009
sI4008
S'500ccceea32e67d8d11f7d3d495e2c07'
p4010
sI4009
S'33854509cd2f5c3e112ae3ab148bc35c'
p4011
sI4010
S'7bfd9b4735c229e35f886e86f49c7603'
p4012
sI4011
S'1fdd04c26f06b99676108652dc4d443f'
p4013
sI4012
S'ceefd2f3c96696ad321fea97bd94a930'
p4014
sI4013
S'ba0268981bb269ddcf6df120299e7a04'
p4015
sI4014
S'1211e6133c77d1a8eccb71afd229574b'
p4016
sI4015
S'1211e6133c77d1a8eccb71afd229574b'
p4017
sI4016
S'a663d319369b4440d88c632d121fee83'
p4018
sI4017
S'b7f951bc04a56c5f4c4fe8aed6c5b2b9'
p4019
sI4018
S'81d84246a74d608f3ee63a106cbb043b'
p4020
sI4019
S'e6818b7c171928daa79522a08106d7e8'
p4021
sI4020
S'b7f951bc04a56c5f4c4fe8aed6c5b2b9'
p4022
sI4021
S'7eb4fded0b399f6375b0d7f470363ea4'
p4023
sI4022
S'7eb4fded0b399f6375b0d7f470363ea4'
p4024
sI4023
S'0813c1fdd58ac900edc4497eb0bb17f6'
p4025
sI4024
S'7eb4fded0b399f6375b0d7f470363ea4'
p4026
sI4025
S'dbf3cb02269e7d4aaecce7fdd6c2bd8e'
p4027
sI4026
S'500ccceea32e67d8d11f7d3d495e2c07'
p4028
sI4027
S'7eb4fded0b399f6375b0d7f470363ea4'
p4029
sI4028
S'c7f633833deb7757b7d9ddf3d8fa3180'
p4030
sI4029
S'c7f633833deb7757b7d9ddf3d8fa3180'
p4031
sI4030
S'0813c1fdd58ac900edc4497eb0bb17f6'
p4032
sI4031
S'0813c1fdd58ac900edc4497eb0bb17f6'
p4033
sI4032
S'a663d319369b4440d88c632d121fee83'
p4034
sI4033
S'26216e7c7acc8f265ebe3140ccdebf50'
p4035
sI4034
S'0813c1fdd58ac900edc4497eb0bb17f6'
p4036
sI4035
S'1fdd04c26f06b99676108652dc4d443f'
p4037
sI4036
S'1fdd04c26f06b99676108652dc4d443f'
p4038
sI4037
S'1fdd04c26f06b99676108652dc4d443f'
p4039
sI4038
S'7bfd9b4735c229e35f886e86f49c7603'
p4040
sI4039
S'b7f951bc04a56c5f4c4fe8aed6c5b2b9'
p4041
sI4040
S'500ccceea32e67d8d11f7d3d495e2c07'
p4042
sI4041
S'b7f951bc04a56c5f4c4fe8aed6c5b2b9'
p4043
sI4042
S'500ccceea32e67d8d11f7d3d495e2c07'
p4044
sI4043
S'1fdd04c26f06b99676108652dc4d443f'
p4045
sI4044
S'500ccceea32e67d8d11f7d3d495e2c07'
p4046
sI4045
S'fd0de6977f28814aed2373bdad80f25f'
p4047
sI4046
S'dbf3cb02269e7d4aaecce7fdd6c2bd8e'
p4048
sI4047
S'0813c1fdd58ac900edc4497eb0bb17f6'
p4049
sI4048
S'0813c1fdd58ac900edc4497eb0bb17f6'
p4050
sI4049
S'0813c1fdd58ac900edc4497eb0bb17f6'
p4051
sI4050
S'0813c1fdd58ac900edc4497eb0bb17f6'
p4052
sI4051
S'10dfd3222d6abfbbb68f79c829102ea1'
p4053
sI4052
S'10dfd3222d6abfbbb68f79c829102ea1'
p4054
sI4053
S'b7f951bc04a56c5f4c4fe8aed6c5b2b9'
p4055
sI4054
S'd455eab08438d594c5a6a9f4d6aea9f2'
p4056
sI4055
S'5e51d4e322ad30dc81af9af8e94dda12'
p4057
sI4056
S'fd0de6977f28814aed2373bdad80f25f'
p4058
sI4057
S'10dfd3222d6abfbbb68f79c829102ea1'
p4059
sI4058
S'10dfd3222d6abfbbb68f79c829102ea1'
p4060
sI4059
S'0813c1fdd58ac900edc4497eb0bb17f6'
p4061
sI4060
S'a679f7ede37b1a73af88c572c8bc2de8'
p4062
sI4061
S'10dfd3222d6abfbbb68f79c829102ea1'
p4063
sI4062
S'10dfd3222d6abfbbb68f79c829102ea1'
p4064
sI4063
S'1fdd04c26f06b99676108652dc4d443f'
p4065
sI4064
S'500ccceea32e67d8d11f7d3d495e2c07'
p4066
sI4065
S'f7d8ae458eff12489df5d950117ef847'
p4067
sI4066
S'1fdd04c26f06b99676108652dc4d443f'
p4068
sI4067
S'1fdd04c26f06b99676108652dc4d443f'
p4069
sI4068
S'1fdd04c26f06b99676108652dc4d443f'
p4070
sI4069
S'1fdd04c26f06b99676108652dc4d443f'
p4071
sI4070
S'1fdd04c26f06b99676108652dc4d443f'
p4072
sI4071
S'109e2d7308fea8e9506b1109acbb714a'
p4073
sI4072
S'c2ec79a92ef680fa66bf2e0f6b028d0b'
p4074
sI4073
S'b78909db58dc7601415b8a9a1642e062'
p4075
sI4074
S'b7f951bc04a56c5f4c4fe8aed6c5b2b9'
p4076
sI4075
S'7b084b261fdcb58481d1cef12a46f0da'
p4077
sI4076
S'ffa96a13101c4baee282ee042ace2192'
p4078
sI4077
S'33854509cd2f5c3e112ae3ab148bc35c'
p4079
sI4078
S'26216e7c7acc8f265ebe3140ccdebf50'
p4080
sI4079
S'f0b0fcea7caedc7fcc4443b7b7e22102'
p4081
sI4080
S'10dfd3222d6abfbbb68f79c829102ea1'
p4082
sI4081
S'33854509cd2f5c3e112ae3ab148bc35c'
p4083
sI4082
S'0813c1fdd58ac900edc4497eb0bb17f6'
p4084
sI4083
S'ffa96a13101c4baee282ee042ace2192'
p4085
sI4084
S'7bfd9b4735c229e35f886e86f49c7603'
p4086
sI4085
S'f0b0fcea7caedc7fcc4443b7b7e22102'
p4087
sI4086
S'f0b0fcea7caedc7fcc4443b7b7e22102'
p4088
sI4087
S'f0b0fcea7caedc7fcc4443b7b7e22102'
p4089
sI4088
S'1fdd04c26f06b99676108652dc4d443f'
p4090
sI4089
S'f0b0fcea7caedc7fcc4443b7b7e22102'
p4091
sI4090
S'7bfd9b4735c229e35f886e86f49c7603'
p4092
sI4091
S'7bfd9b4735c229e35f886e86f49c7603'
p4093
sI4092
S'7bfd9b4735c229e35f886e86f49c7603'
p4094
sI4093
S'0813c1fdd58ac900edc4497eb0bb17f6'
p4095
sI4094
S'f0b0fcea7caedc7fcc4443b7b7e22102'
p4096
sI4095
S'7bfd9b4735c229e35f886e86f49c7603'
p4097
sI4096
S'f343ac1a649ec733b717010b42dfbe52'
p4098
sI4097
S'f0b0fcea7caedc7fcc4443b7b7e22102'
p4099
sI4098
S'7bfd9b4735c229e35f886e86f49c7603'
p4100
sI4099
S'7bfd9b4735c229e35f886e86f49c7603'
p4101
sI4100
S'7bfd9b4735c229e35f886e86f49c7603'
p4102
sI4101
S'3c4058cb538e012afb806707060dd280'
p4103
sI4102
S'ed9d28f8b48cbbc22905eb0e4939a971'
p4104
sI4103
S'7bfd9b4735c229e35f886e86f49c7603'
p4105
sI4104
S'7bfd9b4735c229e35f886e86f49c7603'
p4106
sI4105
S'f0b0fcea7caedc7fcc4443b7b7e22102'
p4107
sI4106
S'd3fabf6946d59b69ce52039159451465'
p4108
sI4107
S'7bfd9b4735c229e35f886e86f49c7603'
p4109
sI4108
S'7bfd9b4735c229e35f886e86f49c7603'
p4110
sI4109
S'f0b0fcea7caedc7fcc4443b7b7e22102'
p4111
sI4110
S'ed9d28f8b48cbbc22905eb0e4939a971'
p4112
sI4111
S'7bfd9b4735c229e35f886e86f49c7603'
p4113
sI4112
S'7bfd9b4735c229e35f886e86f49c7603'
p4114
s.